
ctarget:     file format elf64-x86-64


Disassembly of section .init:

0000000000001000 <_init>:
    1000:	f3 0f 1e fa          	endbr64 
    1004:	48 83 ec 08          	sub    $0x8,%rsp
    1008:	48 8b 05 d9 5f 00 00 	mov    0x5fd9(%rip),%rax        # 6fe8 <__gmon_start__>
    100f:	48 85 c0             	test   %rax,%rax
    1012:	74 02                	je     1016 <_init+0x16>
    1014:	ff d0                	callq  *%rax
    1016:	48 83 c4 08          	add    $0x8,%rsp
    101a:	c3                   	retq   

Disassembly of section .plt:

0000000000001020 <.plt>:
    1020:	ff 35 9a 5e 00 00    	pushq  0x5e9a(%rip)        # 6ec0 <_GLOBAL_OFFSET_TABLE_+0x8>
    1026:	f2 ff 25 9b 5e 00 00 	bnd jmpq *0x5e9b(%rip)        # 6ec8 <_GLOBAL_OFFSET_TABLE_+0x10>
    102d:	0f 1f 00             	nopl   (%rax)
    1030:	f3 0f 1e fa          	endbr64 
    1034:	68 00 00 00 00       	pushq  $0x0
    1039:	f2 e9 e1 ff ff ff    	bnd jmpq 1020 <.plt>
    103f:	90                   	nop
    1040:	f3 0f 1e fa          	endbr64 
    1044:	68 01 00 00 00       	pushq  $0x1
    1049:	f2 e9 d1 ff ff ff    	bnd jmpq 1020 <.plt>
    104f:	90                   	nop
    1050:	f3 0f 1e fa          	endbr64 
    1054:	68 02 00 00 00       	pushq  $0x2
    1059:	f2 e9 c1 ff ff ff    	bnd jmpq 1020 <.plt>
    105f:	90                   	nop
    1060:	f3 0f 1e fa          	endbr64 
    1064:	68 03 00 00 00       	pushq  $0x3
    1069:	f2 e9 b1 ff ff ff    	bnd jmpq 1020 <.plt>
    106f:	90                   	nop
    1070:	f3 0f 1e fa          	endbr64 
    1074:	68 04 00 00 00       	pushq  $0x4
    1079:	f2 e9 a1 ff ff ff    	bnd jmpq 1020 <.plt>
    107f:	90                   	nop
    1080:	f3 0f 1e fa          	endbr64 
    1084:	68 05 00 00 00       	pushq  $0x5
    1089:	f2 e9 91 ff ff ff    	bnd jmpq 1020 <.plt>
    108f:	90                   	nop
    1090:	f3 0f 1e fa          	endbr64 
    1094:	68 06 00 00 00       	pushq  $0x6
    1099:	f2 e9 81 ff ff ff    	bnd jmpq 1020 <.plt>
    109f:	90                   	nop
    10a0:	f3 0f 1e fa          	endbr64 
    10a4:	68 07 00 00 00       	pushq  $0x7
    10a9:	f2 e9 71 ff ff ff    	bnd jmpq 1020 <.plt>
    10af:	90                   	nop
    10b0:	f3 0f 1e fa          	endbr64 
    10b4:	68 08 00 00 00       	pushq  $0x8
    10b9:	f2 e9 61 ff ff ff    	bnd jmpq 1020 <.plt>
    10bf:	90                   	nop
    10c0:	f3 0f 1e fa          	endbr64 
    10c4:	68 09 00 00 00       	pushq  $0x9
    10c9:	f2 e9 51 ff ff ff    	bnd jmpq 1020 <.plt>
    10cf:	90                   	nop
    10d0:	f3 0f 1e fa          	endbr64 
    10d4:	68 0a 00 00 00       	pushq  $0xa
    10d9:	f2 e9 41 ff ff ff    	bnd jmpq 1020 <.plt>
    10df:	90                   	nop
    10e0:	f3 0f 1e fa          	endbr64 
    10e4:	68 0b 00 00 00       	pushq  $0xb
    10e9:	f2 e9 31 ff ff ff    	bnd jmpq 1020 <.plt>
    10ef:	90                   	nop
    10f0:	f3 0f 1e fa          	endbr64 
    10f4:	68 0c 00 00 00       	pushq  $0xc
    10f9:	f2 e9 21 ff ff ff    	bnd jmpq 1020 <.plt>
    10ff:	90                   	nop
    1100:	f3 0f 1e fa          	endbr64 
    1104:	68 0d 00 00 00       	pushq  $0xd
    1109:	f2 e9 11 ff ff ff    	bnd jmpq 1020 <.plt>
    110f:	90                   	nop
    1110:	f3 0f 1e fa          	endbr64 
    1114:	68 0e 00 00 00       	pushq  $0xe
    1119:	f2 e9 01 ff ff ff    	bnd jmpq 1020 <.plt>
    111f:	90                   	nop
    1120:	f3 0f 1e fa          	endbr64 
    1124:	68 0f 00 00 00       	pushq  $0xf
    1129:	f2 e9 f1 fe ff ff    	bnd jmpq 1020 <.plt>
    112f:	90                   	nop
    1130:	f3 0f 1e fa          	endbr64 
    1134:	68 10 00 00 00       	pushq  $0x10
    1139:	f2 e9 e1 fe ff ff    	bnd jmpq 1020 <.plt>
    113f:	90                   	nop
    1140:	f3 0f 1e fa          	endbr64 
    1144:	68 11 00 00 00       	pushq  $0x11
    1149:	f2 e9 d1 fe ff ff    	bnd jmpq 1020 <.plt>
    114f:	90                   	nop
    1150:	f3 0f 1e fa          	endbr64 
    1154:	68 12 00 00 00       	pushq  $0x12
    1159:	f2 e9 c1 fe ff ff    	bnd jmpq 1020 <.plt>
    115f:	90                   	nop
    1160:	f3 0f 1e fa          	endbr64 
    1164:	68 13 00 00 00       	pushq  $0x13
    1169:	f2 e9 b1 fe ff ff    	bnd jmpq 1020 <.plt>
    116f:	90                   	nop
    1170:	f3 0f 1e fa          	endbr64 
    1174:	68 14 00 00 00       	pushq  $0x14
    1179:	f2 e9 a1 fe ff ff    	bnd jmpq 1020 <.plt>
    117f:	90                   	nop
    1180:	f3 0f 1e fa          	endbr64 
    1184:	68 15 00 00 00       	pushq  $0x15
    1189:	f2 e9 91 fe ff ff    	bnd jmpq 1020 <.plt>
    118f:	90                   	nop
    1190:	f3 0f 1e fa          	endbr64 
    1194:	68 16 00 00 00       	pushq  $0x16
    1199:	f2 e9 81 fe ff ff    	bnd jmpq 1020 <.plt>
    119f:	90                   	nop
    11a0:	f3 0f 1e fa          	endbr64 
    11a4:	68 17 00 00 00       	pushq  $0x17
    11a9:	f2 e9 71 fe ff ff    	bnd jmpq 1020 <.plt>
    11af:	90                   	nop
    11b0:	f3 0f 1e fa          	endbr64 
    11b4:	68 18 00 00 00       	pushq  $0x18
    11b9:	f2 e9 61 fe ff ff    	bnd jmpq 1020 <.plt>
    11bf:	90                   	nop
    11c0:	f3 0f 1e fa          	endbr64 
    11c4:	68 19 00 00 00       	pushq  $0x19
    11c9:	f2 e9 51 fe ff ff    	bnd jmpq 1020 <.plt>
    11cf:	90                   	nop
    11d0:	f3 0f 1e fa          	endbr64 
    11d4:	68 1a 00 00 00       	pushq  $0x1a
    11d9:	f2 e9 41 fe ff ff    	bnd jmpq 1020 <.plt>
    11df:	90                   	nop
    11e0:	f3 0f 1e fa          	endbr64 
    11e4:	68 1b 00 00 00       	pushq  $0x1b
    11e9:	f2 e9 31 fe ff ff    	bnd jmpq 1020 <.plt>
    11ef:	90                   	nop
    11f0:	f3 0f 1e fa          	endbr64 
    11f4:	68 1c 00 00 00       	pushq  $0x1c
    11f9:	f2 e9 21 fe ff ff    	bnd jmpq 1020 <.plt>
    11ff:	90                   	nop
    1200:	f3 0f 1e fa          	endbr64 
    1204:	68 1d 00 00 00       	pushq  $0x1d
    1209:	f2 e9 11 fe ff ff    	bnd jmpq 1020 <.plt>
    120f:	90                   	nop
    1210:	f3 0f 1e fa          	endbr64 
    1214:	68 1e 00 00 00       	pushq  $0x1e
    1219:	f2 e9 01 fe ff ff    	bnd jmpq 1020 <.plt>
    121f:	90                   	nop
    1220:	f3 0f 1e fa          	endbr64 
    1224:	68 1f 00 00 00       	pushq  $0x1f
    1229:	f2 e9 f1 fd ff ff    	bnd jmpq 1020 <.plt>
    122f:	90                   	nop
    1230:	f3 0f 1e fa          	endbr64 
    1234:	68 20 00 00 00       	pushq  $0x20
    1239:	f2 e9 e1 fd ff ff    	bnd jmpq 1020 <.plt>
    123f:	90                   	nop

Disassembly of section .plt.got:

0000000000001240 <__cxa_finalize@plt>:
    1240:	f3 0f 1e fa          	endbr64 
    1244:	f2 ff 25 ad 5d 00 00 	bnd jmpq *0x5dad(%rip)        # 6ff8 <__cxa_finalize@GLIBC_2.2.5>
    124b:	0f 1f 44 00 00       	nopl   0x0(%rax,%rax,1)

Disassembly of section .plt.sec:

0000000000001250 <strcasecmp@plt>:
    1250:	f3 0f 1e fa          	endbr64 
    1254:	f2 ff 25 75 5c 00 00 	bnd jmpq *0x5c75(%rip)        # 6ed0 <strcasecmp@GLIBC_2.2.5>
    125b:	0f 1f 44 00 00       	nopl   0x0(%rax,%rax,1)

0000000000001260 <__errno_location@plt>:
    1260:	f3 0f 1e fa          	endbr64 
    1264:	f2 ff 25 6d 5c 00 00 	bnd jmpq *0x5c6d(%rip)        # 6ed8 <__errno_location@GLIBC_2.2.5>
    126b:	0f 1f 44 00 00       	nopl   0x0(%rax,%rax,1)

0000000000001270 <srandom@plt>:
    1270:	f3 0f 1e fa          	endbr64 
    1274:	f2 ff 25 65 5c 00 00 	bnd jmpq *0x5c65(%rip)        # 6ee0 <srandom@GLIBC_2.2.5>
    127b:	0f 1f 44 00 00       	nopl   0x0(%rax,%rax,1)

0000000000001280 <strncmp@plt>:
    1280:	f3 0f 1e fa          	endbr64 
    1284:	f2 ff 25 5d 5c 00 00 	bnd jmpq *0x5c5d(%rip)        # 6ee8 <strncmp@GLIBC_2.2.5>
    128b:	0f 1f 44 00 00       	nopl   0x0(%rax,%rax,1)

0000000000001290 <strcpy@plt>:
    1290:	f3 0f 1e fa          	endbr64 
    1294:	f2 ff 25 55 5c 00 00 	bnd jmpq *0x5c55(%rip)        # 6ef0 <strcpy@GLIBC_2.2.5>
    129b:	0f 1f 44 00 00       	nopl   0x0(%rax,%rax,1)

00000000000012a0 <puts@plt>:
    12a0:	f3 0f 1e fa          	endbr64 
    12a4:	f2 ff 25 4d 5c 00 00 	bnd jmpq *0x5c4d(%rip)        # 6ef8 <puts@GLIBC_2.2.5>
    12ab:	0f 1f 44 00 00       	nopl   0x0(%rax,%rax,1)

00000000000012b0 <write@plt>:
    12b0:	f3 0f 1e fa          	endbr64 
    12b4:	f2 ff 25 45 5c 00 00 	bnd jmpq *0x5c45(%rip)        # 6f00 <write@GLIBC_2.2.5>
    12bb:	0f 1f 44 00 00       	nopl   0x0(%rax,%rax,1)

00000000000012c0 <__stack_chk_fail@plt>:
    12c0:	f3 0f 1e fa          	endbr64 
    12c4:	f2 ff 25 3d 5c 00 00 	bnd jmpq *0x5c3d(%rip)        # 6f08 <__stack_chk_fail@GLIBC_2.4>
    12cb:	0f 1f 44 00 00       	nopl   0x0(%rax,%rax,1)

00000000000012d0 <mmap@plt>:
    12d0:	f3 0f 1e fa          	endbr64 
    12d4:	f2 ff 25 35 5c 00 00 	bnd jmpq *0x5c35(%rip)        # 6f10 <mmap@GLIBC_2.2.5>
    12db:	0f 1f 44 00 00       	nopl   0x0(%rax,%rax,1)

00000000000012e0 <memset@plt>:
    12e0:	f3 0f 1e fa          	endbr64 
    12e4:	f2 ff 25 2d 5c 00 00 	bnd jmpq *0x5c2d(%rip)        # 6f18 <memset@GLIBC_2.2.5>
    12eb:	0f 1f 44 00 00       	nopl   0x0(%rax,%rax,1)

00000000000012f0 <alarm@plt>:
    12f0:	f3 0f 1e fa          	endbr64 
    12f4:	f2 ff 25 25 5c 00 00 	bnd jmpq *0x5c25(%rip)        # 6f20 <alarm@GLIBC_2.2.5>
    12fb:	0f 1f 44 00 00       	nopl   0x0(%rax,%rax,1)

0000000000001300 <close@plt>:
    1300:	f3 0f 1e fa          	endbr64 
    1304:	f2 ff 25 1d 5c 00 00 	bnd jmpq *0x5c1d(%rip)        # 6f28 <close@GLIBC_2.2.5>
    130b:	0f 1f 44 00 00       	nopl   0x0(%rax,%rax,1)

0000000000001310 <read@plt>:
    1310:	f3 0f 1e fa          	endbr64 
    1314:	f2 ff 25 15 5c 00 00 	bnd jmpq *0x5c15(%rip)        # 6f30 <read@GLIBC_2.2.5>
    131b:	0f 1f 44 00 00       	nopl   0x0(%rax,%rax,1)

0000000000001320 <signal@plt>:
    1320:	f3 0f 1e fa          	endbr64 
    1324:	f2 ff 25 0d 5c 00 00 	bnd jmpq *0x5c0d(%rip)        # 6f38 <signal@GLIBC_2.2.5>
    132b:	0f 1f 44 00 00       	nopl   0x0(%rax,%rax,1)

0000000000001330 <gethostbyname@plt>:
    1330:	f3 0f 1e fa          	endbr64 
    1334:	f2 ff 25 05 5c 00 00 	bnd jmpq *0x5c05(%rip)        # 6f40 <gethostbyname@GLIBC_2.2.5>
    133b:	0f 1f 44 00 00       	nopl   0x0(%rax,%rax,1)

0000000000001340 <__memmove_chk@plt>:
    1340:	f3 0f 1e fa          	endbr64 
    1344:	f2 ff 25 fd 5b 00 00 	bnd jmpq *0x5bfd(%rip)        # 6f48 <__memmove_chk@GLIBC_2.3.4>
    134b:	0f 1f 44 00 00       	nopl   0x0(%rax,%rax,1)

0000000000001350 <strtol@plt>:
    1350:	f3 0f 1e fa          	endbr64 
    1354:	f2 ff 25 f5 5b 00 00 	bnd jmpq *0x5bf5(%rip)        # 6f50 <strtol@GLIBC_2.2.5>
    135b:	0f 1f 44 00 00       	nopl   0x0(%rax,%rax,1)

0000000000001360 <memcpy@plt>:
    1360:	f3 0f 1e fa          	endbr64 
    1364:	f2 ff 25 ed 5b 00 00 	bnd jmpq *0x5bed(%rip)        # 6f58 <memcpy@GLIBC_2.14>
    136b:	0f 1f 44 00 00       	nopl   0x0(%rax,%rax,1)

0000000000001370 <time@plt>:
    1370:	f3 0f 1e fa          	endbr64 
    1374:	f2 ff 25 e5 5b 00 00 	bnd jmpq *0x5be5(%rip)        # 6f60 <time@GLIBC_2.2.5>
    137b:	0f 1f 44 00 00       	nopl   0x0(%rax,%rax,1)

0000000000001380 <random@plt>:
    1380:	f3 0f 1e fa          	endbr64 
    1384:	f2 ff 25 dd 5b 00 00 	bnd jmpq *0x5bdd(%rip)        # 6f68 <random@GLIBC_2.2.5>
    138b:	0f 1f 44 00 00       	nopl   0x0(%rax,%rax,1)

0000000000001390 <__isoc99_sscanf@plt>:
    1390:	f3 0f 1e fa          	endbr64 
    1394:	f2 ff 25 d5 5b 00 00 	bnd jmpq *0x5bd5(%rip)        # 6f70 <__isoc99_sscanf@GLIBC_2.7>
    139b:	0f 1f 44 00 00       	nopl   0x0(%rax,%rax,1)

00000000000013a0 <munmap@plt>:
    13a0:	f3 0f 1e fa          	endbr64 
    13a4:	f2 ff 25 cd 5b 00 00 	bnd jmpq *0x5bcd(%rip)        # 6f78 <munmap@GLIBC_2.2.5>
    13ab:	0f 1f 44 00 00       	nopl   0x0(%rax,%rax,1)

00000000000013b0 <__printf_chk@plt>:
    13b0:	f3 0f 1e fa          	endbr64 
    13b4:	f2 ff 25 c5 5b 00 00 	bnd jmpq *0x5bc5(%rip)        # 6f80 <__printf_chk@GLIBC_2.3.4>
    13bb:	0f 1f 44 00 00       	nopl   0x0(%rax,%rax,1)

00000000000013c0 <fopen@plt>:
    13c0:	f3 0f 1e fa          	endbr64 
    13c4:	f2 ff 25 bd 5b 00 00 	bnd jmpq *0x5bbd(%rip)        # 6f88 <fopen@GLIBC_2.2.5>
    13cb:	0f 1f 44 00 00       	nopl   0x0(%rax,%rax,1)

00000000000013d0 <getopt@plt>:
    13d0:	f3 0f 1e fa          	endbr64 
    13d4:	f2 ff 25 b5 5b 00 00 	bnd jmpq *0x5bb5(%rip)        # 6f90 <getopt@GLIBC_2.2.5>
    13db:	0f 1f 44 00 00       	nopl   0x0(%rax,%rax,1)

00000000000013e0 <strtoul@plt>:
    13e0:	f3 0f 1e fa          	endbr64 
    13e4:	f2 ff 25 ad 5b 00 00 	bnd jmpq *0x5bad(%rip)        # 6f98 <strtoul@GLIBC_2.2.5>
    13eb:	0f 1f 44 00 00       	nopl   0x0(%rax,%rax,1)

00000000000013f0 <gethostname@plt>:
    13f0:	f3 0f 1e fa          	endbr64 
    13f4:	f2 ff 25 a5 5b 00 00 	bnd jmpq *0x5ba5(%rip)        # 6fa0 <gethostname@GLIBC_2.2.5>
    13fb:	0f 1f 44 00 00       	nopl   0x0(%rax,%rax,1)

0000000000001400 <exit@plt>:
    1400:	f3 0f 1e fa          	endbr64 
    1404:	f2 ff 25 9d 5b 00 00 	bnd jmpq *0x5b9d(%rip)        # 6fa8 <exit@GLIBC_2.2.5>
    140b:	0f 1f 44 00 00       	nopl   0x0(%rax,%rax,1)

0000000000001410 <connect@plt>:
    1410:	f3 0f 1e fa          	endbr64 
    1414:	f2 ff 25 95 5b 00 00 	bnd jmpq *0x5b95(%rip)        # 6fb0 <connect@GLIBC_2.2.5>
    141b:	0f 1f 44 00 00       	nopl   0x0(%rax,%rax,1)

0000000000001420 <__fprintf_chk@plt>:
    1420:	f3 0f 1e fa          	endbr64 
    1424:	f2 ff 25 8d 5b 00 00 	bnd jmpq *0x5b8d(%rip)        # 6fb8 <__fprintf_chk@GLIBC_2.3.4>
    142b:	0f 1f 44 00 00       	nopl   0x0(%rax,%rax,1)

0000000000001430 <getc@plt>:
    1430:	f3 0f 1e fa          	endbr64 
    1434:	f2 ff 25 85 5b 00 00 	bnd jmpq *0x5b85(%rip)        # 6fc0 <getc@GLIBC_2.2.5>
    143b:	0f 1f 44 00 00       	nopl   0x0(%rax,%rax,1)

0000000000001440 <__sprintf_chk@plt>:
    1440:	f3 0f 1e fa          	endbr64 
    1444:	f2 ff 25 7d 5b 00 00 	bnd jmpq *0x5b7d(%rip)        # 6fc8 <__sprintf_chk@GLIBC_2.3.4>
    144b:	0f 1f 44 00 00       	nopl   0x0(%rax,%rax,1)

0000000000001450 <socket@plt>:
    1450:	f3 0f 1e fa          	endbr64 
    1454:	f2 ff 25 75 5b 00 00 	bnd jmpq *0x5b75(%rip)        # 6fd0 <socket@GLIBC_2.2.5>
    145b:	0f 1f 44 00 00       	nopl   0x0(%rax,%rax,1)

Disassembly of section .text:

0000000000001460 <_start>:
    1460:	f3 0f 1e fa          	endbr64 
    1464:	31 ed                	xor    %ebp,%ebp
    1466:	49 89 d1             	mov    %rdx,%r9
    1469:	5e                   	pop    %rsi
    146a:	48 89 e2             	mov    %rsp,%rdx
    146d:	48 83 e4 f0          	and    $0xfffffffffffffff0,%rsp
    1471:	50                   	push   %rax
    1472:	54                   	push   %rsp
    1473:	4c 8d 05 d6 1f 00 00 	lea    0x1fd6(%rip),%r8        # 3450 <__libc_csu_fini>
    147a:	48 8d 0d 5f 1f 00 00 	lea    0x1f5f(%rip),%rcx        # 33e0 <__libc_csu_init>
    1481:	48 8d 3d f8 02 00 00 	lea    0x2f8(%rip),%rdi        # 1780 <main>
    1488:	ff 15 52 5b 00 00    	callq  *0x5b52(%rip)        # 6fe0 <__libc_start_main@GLIBC_2.2.5>
    148e:	f4                   	hlt    
    148f:	90                   	nop

0000000000001490 <deregister_tm_clones>:
    1490:	48 8d 3d a1 5b 00 00 	lea    0x5ba1(%rip),%rdi        # 7038 <__TMC_END__>
    1497:	48 8d 05 9a 5b 00 00 	lea    0x5b9a(%rip),%rax        # 7038 <__TMC_END__>
    149e:	48 39 f8             	cmp    %rdi,%rax
    14a1:	74 15                	je     14b8 <deregister_tm_clones+0x28>
    14a3:	48 8b 05 2e 5b 00 00 	mov    0x5b2e(%rip),%rax        # 6fd8 <_ITM_deregisterTMCloneTable>
    14aa:	48 85 c0             	test   %rax,%rax
    14ad:	74 09                	je     14b8 <deregister_tm_clones+0x28>
    14af:	ff e0                	jmpq   *%rax
    14b1:	0f 1f 80 00 00 00 00 	nopl   0x0(%rax)
    14b8:	c3                   	retq   
    14b9:	0f 1f 80 00 00 00 00 	nopl   0x0(%rax)

00000000000014c0 <register_tm_clones>:
    14c0:	48 8d 3d 71 5b 00 00 	lea    0x5b71(%rip),%rdi        # 7038 <__TMC_END__>
    14c7:	48 8d 35 6a 5b 00 00 	lea    0x5b6a(%rip),%rsi        # 7038 <__TMC_END__>
    14ce:	48 29 fe             	sub    %rdi,%rsi
    14d1:	48 89 f0             	mov    %rsi,%rax
    14d4:	48 c1 ee 3f          	shr    $0x3f,%rsi
    14d8:	48 c1 f8 03          	sar    $0x3,%rax
    14dc:	48 01 c6             	add    %rax,%rsi
    14df:	48 d1 fe             	sar    %rsi
    14e2:	74 14                	je     14f8 <register_tm_clones+0x38>
    14e4:	48 8b 05 05 5b 00 00 	mov    0x5b05(%rip),%rax        # 6ff0 <_ITM_registerTMCloneTable>
    14eb:	48 85 c0             	test   %rax,%rax
    14ee:	74 08                	je     14f8 <register_tm_clones+0x38>
    14f0:	ff e0                	jmpq   *%rax
    14f2:	66 0f 1f 44 00 00    	nopw   0x0(%rax,%rax,1)
    14f8:	c3                   	retq   
    14f9:	0f 1f 80 00 00 00 00 	nopl   0x0(%rax)

0000000000001500 <__do_global_dtors_aux>:
    1500:	f3 0f 1e fa          	endbr64 
    1504:	80 3d 5d 5b 00 00 00 	cmpb   $0x0,0x5b5d(%rip)        # 7068 <completed.8061>
    150b:	75 2b                	jne    1538 <__do_global_dtors_aux+0x38>
    150d:	55                   	push   %rbp
    150e:	48 83 3d e2 5a 00 00 	cmpq   $0x0,0x5ae2(%rip)        # 6ff8 <__cxa_finalize@GLIBC_2.2.5>
    1515:	00 
    1516:	48 89 e5             	mov    %rsp,%rbp
    1519:	74 0c                	je     1527 <__do_global_dtors_aux+0x27>
    151b:	48 8b 3d e6 5a 00 00 	mov    0x5ae6(%rip),%rdi        # 7008 <__dso_handle>
    1522:	e8 19 fd ff ff       	callq  1240 <__cxa_finalize@plt>
    1527:	e8 64 ff ff ff       	callq  1490 <deregister_tm_clones>
    152c:	c6 05 35 5b 00 00 01 	movb   $0x1,0x5b35(%rip)        # 7068 <completed.8061>
    1533:	5d                   	pop    %rbp
    1534:	c3                   	retq   
    1535:	0f 1f 00             	nopl   (%rax)
    1538:	c3                   	retq   
    1539:	0f 1f 80 00 00 00 00 	nopl   0x0(%rax)

0000000000001540 <frame_dummy>:
    1540:	f3 0f 1e fa          	endbr64 
    1544:	e9 77 ff ff ff       	jmpq   14c0 <register_tm_clones>

0000000000001549 <usage>:
    1549:	50                   	push   %rax
    154a:	58                   	pop    %rax
    154b:	48 83 ec 08          	sub    $0x8,%rsp
    154f:	48 89 fa             	mov    %rdi,%rdx
    1552:	83 3d 73 5e 00 00 00 	cmpl   $0x0,0x5e73(%rip)        # 73cc <is_checker>
    1559:	74 50                	je     15ab <usage+0x62>
    155b:	48 8d 35 a6 2a 00 00 	lea    0x2aa6(%rip),%rsi        # 4008 <_IO_stdin_used+0x8>
    1562:	bf 01 00 00 00       	mov    $0x1,%edi
    1567:	b8 00 00 00 00       	mov    $0x0,%eax
    156c:	e8 3f fe ff ff       	callq  13b0 <__printf_chk@plt>
    1571:	48 8d 3d c8 2a 00 00 	lea    0x2ac8(%rip),%rdi        # 4040 <_IO_stdin_used+0x40>
    1578:	e8 23 fd ff ff       	callq  12a0 <puts@plt>
    157d:	48 8d 3d 04 2c 00 00 	lea    0x2c04(%rip),%rdi        # 4188 <_IO_stdin_used+0x188>
    1584:	e8 17 fd ff ff       	callq  12a0 <puts@plt>
    1589:	48 8d 3d d8 2a 00 00 	lea    0x2ad8(%rip),%rdi        # 4068 <_IO_stdin_used+0x68>
    1590:	e8 0b fd ff ff       	callq  12a0 <puts@plt>
    1595:	48 8d 3d 06 2c 00 00 	lea    0x2c06(%rip),%rdi        # 41a2 <_IO_stdin_used+0x1a2>
    159c:	e8 ff fc ff ff       	callq  12a0 <puts@plt>
    15a1:	bf 00 00 00 00       	mov    $0x0,%edi
    15a6:	e8 55 fe ff ff       	callq  1400 <exit@plt>
    15ab:	48 8d 35 0c 2c 00 00 	lea    0x2c0c(%rip),%rsi        # 41be <_IO_stdin_used+0x1be>
    15b2:	bf 01 00 00 00       	mov    $0x1,%edi
    15b7:	b8 00 00 00 00       	mov    $0x0,%eax
    15bc:	e8 ef fd ff ff       	callq  13b0 <__printf_chk@plt>
    15c1:	48 8d 3d c8 2a 00 00 	lea    0x2ac8(%rip),%rdi        # 4090 <_IO_stdin_used+0x90>
    15c8:	e8 d3 fc ff ff       	callq  12a0 <puts@plt>
    15cd:	48 8d 3d 08 2c 00 00 	lea    0x2c08(%rip),%rdi        # 41dc <_IO_stdin_used+0x1dc>
    15d4:	e8 c7 fc ff ff       	callq  12a0 <puts@plt>
    15d9:	eb c6                	jmp    15a1 <usage+0x58>

00000000000015db <initialize_target>:
    15db:	55                   	push   %rbp
    15dc:	53                   	push   %rbx
    15dd:	48 81 ec 00 10 00 00 	sub    $0x1000,%rsp
    15e4:	48 83 0c 24 00       	orq    $0x0,(%rsp)
    15e9:	48 81 ec 00 10 00 00 	sub    $0x1000,%rsp
    15f0:	48 83 0c 24 00       	orq    $0x0,(%rsp)
    15f5:	48 81 ec 18 01 00 00 	sub    $0x118,%rsp
    15fc:	89 f5                	mov    %esi,%ebp
    15fe:	64 48 8b 04 25 28 00 	mov    %fs:0x28,%rax
    1605:	00 00 
    1607:	48 89 84 24 08 21 00 	mov    %rax,0x2108(%rsp)
    160e:	00 
    160f:	31 c0                	xor    %eax,%eax
    1611:	89 3d a5 5d 00 00    	mov    %edi,0x5da5(%rip)        # 73bc <check_level>
    1617:	8b 3d f3 59 00 00    	mov    0x59f3(%rip),%edi        # 7010 <target_id>
    161d:	e8 94 1d 00 00       	callq  33b6 <gencookie>
    1622:	89 c7                	mov    %eax,%edi
    1624:	89 05 9e 5d 00 00    	mov    %eax,0x5d9e(%rip)        # 73c8 <cookie>
    162a:	e8 87 1d 00 00       	callq  33b6 <gencookie>
    162f:	89 05 8f 5d 00 00    	mov    %eax,0x5d8f(%rip)        # 73c4 <authkey>
    1635:	8b 05 d5 59 00 00    	mov    0x59d5(%rip),%eax        # 7010 <target_id>
    163b:	8d 78 01             	lea    0x1(%rax),%edi
    163e:	e8 2d fc ff ff       	callq  1270 <srandom@plt>
    1643:	e8 38 fd ff ff       	callq  1380 <random@plt>
    1648:	48 89 c7             	mov    %rax,%rdi
    164b:	e8 20 03 00 00       	callq  1970 <scramble>
    1650:	89 c3                	mov    %eax,%ebx
    1652:	85 ed                	test   %ebp,%ebp
    1654:	75 54                	jne    16aa <initialize_target+0xcf>
    1656:	b8 00 00 00 00       	mov    $0x0,%eax
    165b:	01 d8                	add    %ebx,%eax
    165d:	0f b7 c0             	movzwl %ax,%eax
    1660:	8d 04 c5 00 01 00 00 	lea    0x100(,%rax,8),%eax
    1667:	89 c0                	mov    %eax,%eax
    1669:	48 89 05 c0 59 00 00 	mov    %rax,0x59c0(%rip)        # 7030 <buf_offset>
    1670:	c6 05 71 69 00 00 63 	movb   $0x63,0x6971(%rip)        # 7fe8 <target_prefix>
    1677:	83 3d 3a 5d 00 00 00 	cmpl   $0x0,0x5d3a(%rip)        # 73b8 <notify>
    167e:	74 09                	je     1689 <initialize_target+0xae>
    1680:	83 3d 45 5d 00 00 00 	cmpl   $0x0,0x5d45(%rip)        # 73cc <is_checker>
    1687:	74 3a                	je     16c3 <initialize_target+0xe8>
    1689:	48 8b 84 24 08 21 00 	mov    0x2108(%rsp),%rax
    1690:	00 
    1691:	64 48 33 04 25 28 00 	xor    %fs:0x28,%rax
    1698:	00 00 
    169a:	0f 85 db 00 00 00    	jne    177b <initialize_target+0x1a0>
    16a0:	48 81 c4 18 21 00 00 	add    $0x2118,%rsp
    16a7:	5b                   	pop    %rbx
    16a8:	5d                   	pop    %rbp
    16a9:	c3                   	retq   
    16aa:	bf 00 00 00 00       	mov    $0x0,%edi
    16af:	e8 bc fc ff ff       	callq  1370 <time@plt>
    16b4:	48 89 c7             	mov    %rax,%rdi
    16b7:	e8 b4 fb ff ff       	callq  1270 <srandom@plt>
    16bc:	e8 bf fc ff ff       	callq  1380 <random@plt>
    16c1:	eb 98                	jmp    165b <initialize_target+0x80>
    16c3:	48 89 e7             	mov    %rsp,%rdi
    16c6:	be 00 01 00 00       	mov    $0x100,%esi
    16cb:	e8 20 fd ff ff       	callq  13f0 <gethostname@plt>
    16d0:	89 c5                	mov    %eax,%ebp
    16d2:	85 c0                	test   %eax,%eax
    16d4:	75 26                	jne    16fc <initialize_target+0x121>
    16d6:	89 c3                	mov    %eax,%ebx
    16d8:	48 63 c3             	movslq %ebx,%rax
    16db:	48 8d 15 9e 59 00 00 	lea    0x599e(%rip),%rdx        # 7080 <host_table>
    16e2:	48 8b 3c c2          	mov    (%rdx,%rax,8),%rdi
    16e6:	48 85 ff             	test   %rdi,%rdi
    16e9:	74 2c                	je     1717 <initialize_target+0x13c>
    16eb:	48 89 e6             	mov    %rsp,%rsi
    16ee:	e8 5d fb ff ff       	callq  1250 <strcasecmp@plt>
    16f3:	85 c0                	test   %eax,%eax
    16f5:	74 1b                	je     1712 <initialize_target+0x137>
    16f7:	83 c3 01             	add    $0x1,%ebx
    16fa:	eb dc                	jmp    16d8 <initialize_target+0xfd>
    16fc:	48 8d 3d b5 29 00 00 	lea    0x29b5(%rip),%rdi        # 40b8 <_IO_stdin_used+0xb8>
    1703:	e8 98 fb ff ff       	callq  12a0 <puts@plt>
    1708:	bf 08 00 00 00       	mov    $0x8,%edi
    170d:	e8 ee fc ff ff       	callq  1400 <exit@plt>
    1712:	bd 01 00 00 00       	mov    $0x1,%ebp
    1717:	85 ed                	test   %ebp,%ebp
    1719:	74 3d                	je     1758 <initialize_target+0x17d>
    171b:	48 8d bc 24 00 01 00 	lea    0x100(%rsp),%rdi
    1722:	00 
    1723:	e8 d3 19 00 00       	callq  30fb <init_driver>
    1728:	85 c0                	test   %eax,%eax
    172a:	0f 89 59 ff ff ff    	jns    1689 <initialize_target+0xae>
    1730:	48 8d 94 24 00 01 00 	lea    0x100(%rsp),%rdx
    1737:	00 
    1738:	48 8d 35 f1 29 00 00 	lea    0x29f1(%rip),%rsi        # 4130 <_IO_stdin_used+0x130>
    173f:	bf 01 00 00 00       	mov    $0x1,%edi
    1744:	b8 00 00 00 00       	mov    $0x0,%eax
    1749:	e8 62 fc ff ff       	callq  13b0 <__printf_chk@plt>
    174e:	bf 08 00 00 00       	mov    $0x8,%edi
    1753:	e8 a8 fc ff ff       	callq  1400 <exit@plt>
    1758:	48 89 e2             	mov    %rsp,%rdx
    175b:	48 8d 35 8e 29 00 00 	lea    0x298e(%rip),%rsi        # 40f0 <_IO_stdin_used+0xf0>
    1762:	bf 01 00 00 00       	mov    $0x1,%edi
    1767:	b8 00 00 00 00       	mov    $0x0,%eax
    176c:	e8 3f fc ff ff       	callq  13b0 <__printf_chk@plt>
    1771:	bf 08 00 00 00       	mov    $0x8,%edi
    1776:	e8 85 fc ff ff       	callq  1400 <exit@plt>
    177b:	e8 40 fb ff ff       	callq  12c0 <__stack_chk_fail@plt>

0000000000001780 <main>:
    1780:	f3 0f 1e fa          	endbr64 
    1784:	41 56                	push   %r14
    1786:	41 55                	push   %r13
    1788:	41 54                	push   %r12
    178a:	55                   	push   %rbp
    178b:	53                   	push   %rbx
    178c:	89 fd                	mov    %edi,%ebp
    178e:	48 89 f3             	mov    %rsi,%rbx
    1791:	48 8d 35 06 0c 00 00 	lea    0xc06(%rip),%rsi        # 239e <seghandler>
    1798:	bf 0b 00 00 00       	mov    $0xb,%edi
    179d:	e8 7e fb ff ff       	callq  1320 <signal@plt>
    17a2:	48 8d 35 9b 0b 00 00 	lea    0xb9b(%rip),%rsi        # 2344 <bushandler>
    17a9:	bf 07 00 00 00       	mov    $0x7,%edi
    17ae:	e8 6d fb ff ff       	callq  1320 <signal@plt>
    17b3:	48 8d 35 3e 0c 00 00 	lea    0xc3e(%rip),%rsi        # 23f8 <illegalhandler>
    17ba:	bf 04 00 00 00       	mov    $0x4,%edi
    17bf:	e8 5c fb ff ff       	callq  1320 <signal@plt>
    17c4:	83 3d 01 5c 00 00 00 	cmpl   $0x0,0x5c01(%rip)        # 73cc <is_checker>
    17cb:	75 26                	jne    17f3 <main+0x73>
    17cd:	4c 8d 25 29 2a 00 00 	lea    0x2a29(%rip),%r12        # 41fd <_IO_stdin_used+0x1fd>
    17d4:	48 8b 05 65 58 00 00 	mov    0x5865(%rip),%rax        # 7040 <stdin@@GLIBC_2.2.5>
    17db:	48 89 05 ce 5b 00 00 	mov    %rax,0x5bce(%rip)        # 73b0 <infile>
    17e2:	41 bd 00 00 00 00    	mov    $0x0,%r13d
    17e8:	41 be 00 00 00 00    	mov    $0x0,%r14d
    17ee:	e9 8d 00 00 00       	jmpq   1880 <main+0x100>
    17f3:	48 8d 35 58 0c 00 00 	lea    0xc58(%rip),%rsi        # 2452 <sigalrmhandler>
    17fa:	bf 0e 00 00 00       	mov    $0xe,%edi
    17ff:	e8 1c fb ff ff       	callq  1320 <signal@plt>
    1804:	bf 05 00 00 00       	mov    $0x5,%edi
    1809:	e8 e2 fa ff ff       	callq  12f0 <alarm@plt>
    180e:	4c 8d 25 e0 29 00 00 	lea    0x29e0(%rip),%r12        # 41f5 <_IO_stdin_used+0x1f5>
    1815:	eb bd                	jmp    17d4 <main+0x54>
    1817:	48 8b 3b             	mov    (%rbx),%rdi
    181a:	e8 2a fd ff ff       	callq  1549 <usage>
    181f:	48 8d 35 d4 2b 00 00 	lea    0x2bd4(%rip),%rsi        # 43fa <_IO_stdin_used+0x3fa>
    1826:	48 8b 3d 1b 58 00 00 	mov    0x581b(%rip),%rdi        # 7048 <optarg@@GLIBC_2.2.5>
    182d:	e8 8e fb ff ff       	callq  13c0 <fopen@plt>
    1832:	48 89 05 77 5b 00 00 	mov    %rax,0x5b77(%rip)        # 73b0 <infile>
    1839:	48 85 c0             	test   %rax,%rax
    183c:	75 42                	jne    1880 <main+0x100>
    183e:	48 8b 0d 03 58 00 00 	mov    0x5803(%rip),%rcx        # 7048 <optarg@@GLIBC_2.2.5>
    1845:	48 8d 15 b6 29 00 00 	lea    0x29b6(%rip),%rdx        # 4202 <_IO_stdin_used+0x202>
    184c:	be 01 00 00 00       	mov    $0x1,%esi
    1851:	48 8b 3d 08 58 00 00 	mov    0x5808(%rip),%rdi        # 7060 <stderr@@GLIBC_2.2.5>
    1858:	e8 c3 fb ff ff       	callq  1420 <__fprintf_chk@plt>
    185d:	b8 01 00 00 00       	mov    $0x1,%eax
    1862:	e9 db 00 00 00       	jmpq   1942 <main+0x1c2>
    1867:	ba 10 00 00 00       	mov    $0x10,%edx
    186c:	be 00 00 00 00       	mov    $0x0,%esi
    1871:	48 8b 3d d0 57 00 00 	mov    0x57d0(%rip),%rdi        # 7048 <optarg@@GLIBC_2.2.5>
    1878:	e8 63 fb ff ff       	callq  13e0 <strtoul@plt>
    187d:	41 89 c6             	mov    %eax,%r14d
    1880:	4c 89 e2             	mov    %r12,%rdx
    1883:	48 89 de             	mov    %rbx,%rsi
    1886:	89 ef                	mov    %ebp,%edi
    1888:	e8 43 fb ff ff       	callq  13d0 <getopt@plt>
    188d:	3c ff                	cmp    $0xff,%al
    188f:	74 65                	je     18f6 <main+0x176>
    1891:	0f be c8             	movsbl %al,%ecx
    1894:	83 e8 61             	sub    $0x61,%eax
    1897:	3c 10                	cmp    $0x10,%al
    1899:	77 3b                	ja     18d6 <main+0x156>
    189b:	0f b6 c0             	movzbl %al,%eax
    189e:	48 8d 15 9b 29 00 00 	lea    0x299b(%rip),%rdx        # 4240 <_IO_stdin_used+0x240>
    18a5:	48 63 04 82          	movslq (%rdx,%rax,4),%rax
    18a9:	48 01 d0             	add    %rdx,%rax
    18ac:	3e ff e0             	notrack jmpq *%rax
    18af:	ba 0a 00 00 00       	mov    $0xa,%edx
    18b4:	be 00 00 00 00       	mov    $0x0,%esi
    18b9:	48 8b 3d 88 57 00 00 	mov    0x5788(%rip),%rdi        # 7048 <optarg@@GLIBC_2.2.5>
    18c0:	e8 8b fa ff ff       	callq  1350 <strtol@plt>
    18c5:	41 89 c5             	mov    %eax,%r13d
    18c8:	eb b6                	jmp    1880 <main+0x100>
    18ca:	c7 05 e4 5a 00 00 00 	movl   $0x0,0x5ae4(%rip)        # 73b8 <notify>
    18d1:	00 00 00 
    18d4:	eb aa                	jmp    1880 <main+0x100>
    18d6:	89 ca                	mov    %ecx,%edx
    18d8:	48 8d 35 40 29 00 00 	lea    0x2940(%rip),%rsi        # 421f <_IO_stdin_used+0x21f>
    18df:	bf 01 00 00 00       	mov    $0x1,%edi
    18e4:	b8 00 00 00 00       	mov    $0x0,%eax
    18e9:	e8 c2 fa ff ff       	callq  13b0 <__printf_chk@plt>
    18ee:	48 8b 3b             	mov    (%rbx),%rdi
    18f1:	e8 53 fc ff ff       	callq  1549 <usage>
    18f6:	be 00 00 00 00       	mov    $0x0,%esi
    18fb:	44 89 ef             	mov    %r13d,%edi
    18fe:	e8 d8 fc ff ff       	callq  15db <initialize_target>
    1903:	83 3d c2 5a 00 00 00 	cmpl   $0x0,0x5ac2(%rip)        # 73cc <is_checker>
    190a:	74 09                	je     1915 <main+0x195>
    190c:	44 39 35 b1 5a 00 00 	cmp    %r14d,0x5ab1(%rip)        # 73c4 <authkey>
    1913:	75 36                	jne    194b <main+0x1cb>
    1915:	8b 15 ad 5a 00 00    	mov    0x5aad(%rip),%edx        # 73c8 <cookie>
    191b:	48 8d 35 10 29 00 00 	lea    0x2910(%rip),%rsi        # 4232 <_IO_stdin_used+0x232>
    1922:	bf 01 00 00 00       	mov    $0x1,%edi
    1927:	b8 00 00 00 00       	mov    $0x0,%eax
    192c:	e8 7f fa ff ff       	callq  13b0 <__printf_chk@plt>
    1931:	48 8b 3d f8 56 00 00 	mov    0x56f8(%rip),%rdi        # 7030 <buf_offset>
    1938:	e8 67 0c 00 00       	callq  25a4 <stable_launch>
    193d:	b8 00 00 00 00       	mov    $0x0,%eax
    1942:	5b                   	pop    %rbx
    1943:	5d                   	pop    %rbp
    1944:	41 5c                	pop    %r12
    1946:	41 5d                	pop    %r13
    1948:	41 5e                	pop    %r14
    194a:	c3                   	retq   
    194b:	44 89 f2             	mov    %r14d,%edx
    194e:	48 8d 35 03 28 00 00 	lea    0x2803(%rip),%rsi        # 4158 <_IO_stdin_used+0x158>
    1955:	bf 01 00 00 00       	mov    $0x1,%edi
    195a:	b8 00 00 00 00       	mov    $0x0,%eax
    195f:	e8 4c fa ff ff       	callq  13b0 <__printf_chk@plt>
    1964:	b8 00 00 00 00       	mov    $0x0,%eax
    1969:	e8 49 07 00 00       	callq  20b7 <check_fail>
    196e:	eb a5                	jmp    1915 <main+0x195>

0000000000001970 <scramble>:
    1970:	f3 0f 1e fa          	endbr64 
    1974:	48 83 ec 38          	sub    $0x38,%rsp
    1978:	64 48 8b 04 25 28 00 	mov    %fs:0x28,%rax
    197f:	00 00 
    1981:	48 89 44 24 28       	mov    %rax,0x28(%rsp)
    1986:	31 c0                	xor    %eax,%eax
    1988:	83 f8 09             	cmp    $0x9,%eax
    198b:	77 12                	ja     199f <scramble+0x2f>
    198d:	69 d0 68 64 00 00    	imul   $0x6468,%eax,%edx
    1993:	01 fa                	add    %edi,%edx
    1995:	89 c1                	mov    %eax,%ecx
    1997:	89 14 8c             	mov    %edx,(%rsp,%rcx,4)
    199a:	83 c0 01             	add    $0x1,%eax
    199d:	eb e9                	jmp    1988 <scramble+0x18>
    199f:	8b 44 24 0c          	mov    0xc(%rsp),%eax
    19a3:	69 c0 cd ca 00 00    	imul   $0xcacd,%eax,%eax
    19a9:	89 44 24 0c          	mov    %eax,0xc(%rsp)
    19ad:	8b 44 24 24          	mov    0x24(%rsp),%eax
    19b1:	69 c0 ae 3a 00 00    	imul   $0x3aae,%eax,%eax
    19b7:	89 44 24 24          	mov    %eax,0x24(%rsp)
    19bb:	8b 44 24 04          	mov    0x4(%rsp),%eax
    19bf:	69 c0 1c ad 00 00    	imul   $0xad1c,%eax,%eax
    19c5:	89 44 24 04          	mov    %eax,0x4(%rsp)
    19c9:	8b 44 24 24          	mov    0x24(%rsp),%eax
    19cd:	69 c0 ed 23 00 00    	imul   $0x23ed,%eax,%eax
    19d3:	89 44 24 24          	mov    %eax,0x24(%rsp)
    19d7:	8b 44 24 18          	mov    0x18(%rsp),%eax
    19db:	69 c0 26 af 00 00    	imul   $0xaf26,%eax,%eax
    19e1:	89 44 24 18          	mov    %eax,0x18(%rsp)
    19e5:	8b 04 24             	mov    (%rsp),%eax
    19e8:	69 c0 5e a3 00 00    	imul   $0xa35e,%eax,%eax
    19ee:	89 04 24             	mov    %eax,(%rsp)
    19f1:	8b 44 24 18          	mov    0x18(%rsp),%eax
    19f5:	69 c0 66 75 00 00    	imul   $0x7566,%eax,%eax
    19fb:	89 44 24 18          	mov    %eax,0x18(%rsp)
    19ff:	8b 04 24             	mov    (%rsp),%eax
    1a02:	69 c0 85 7f 00 00    	imul   $0x7f85,%eax,%eax
    1a08:	89 04 24             	mov    %eax,(%rsp)
    1a0b:	8b 04 24             	mov    (%rsp),%eax
    1a0e:	8d 04 80             	lea    (%rax,%rax,4),%eax
    1a11:	c1 e0 0b             	shl    $0xb,%eax
    1a14:	89 04 24             	mov    %eax,(%rsp)
    1a17:	8b 44 24 10          	mov    0x10(%rsp),%eax
    1a1b:	69 c0 8e 8b 00 00    	imul   $0x8b8e,%eax,%eax
    1a21:	89 44 24 10          	mov    %eax,0x10(%rsp)
    1a25:	8b 44 24 1c          	mov    0x1c(%rsp),%eax
    1a29:	69 c0 6a b0 00 00    	imul   $0xb06a,%eax,%eax
    1a2f:	89 44 24 1c          	mov    %eax,0x1c(%rsp)
    1a33:	8b 04 24             	mov    (%rsp),%eax
    1a36:	69 c0 86 70 00 00    	imul   $0x7086,%eax,%eax
    1a3c:	89 04 24             	mov    %eax,(%rsp)
    1a3f:	8b 44 24 1c          	mov    0x1c(%rsp),%eax
    1a43:	69 c0 38 df 00 00    	imul   $0xdf38,%eax,%eax
    1a49:	89 44 24 1c          	mov    %eax,0x1c(%rsp)
    1a4d:	8b 44 24 08          	mov    0x8(%rsp),%eax
    1a51:	69 c0 5b 66 00 00    	imul   $0x665b,%eax,%eax
    1a57:	89 44 24 08          	mov    %eax,0x8(%rsp)
    1a5b:	8b 44 24 14          	mov    0x14(%rsp),%eax
    1a5f:	69 c0 ce 23 00 00    	imul   $0x23ce,%eax,%eax
    1a65:	89 44 24 14          	mov    %eax,0x14(%rsp)
    1a69:	8b 44 24 1c          	mov    0x1c(%rsp),%eax
    1a6d:	69 c0 95 66 00 00    	imul   $0x6695,%eax,%eax
    1a73:	89 44 24 1c          	mov    %eax,0x1c(%rsp)
    1a77:	8b 44 24 14          	mov    0x14(%rsp),%eax
    1a7b:	69 c0 fc 3c 00 00    	imul   $0x3cfc,%eax,%eax
    1a81:	89 44 24 14          	mov    %eax,0x14(%rsp)
    1a85:	8b 44 24 24          	mov    0x24(%rsp),%eax
    1a89:	69 c0 ce ff 00 00    	imul   $0xffce,%eax,%eax
    1a8f:	89 44 24 24          	mov    %eax,0x24(%rsp)
    1a93:	8b 44 24 10          	mov    0x10(%rsp),%eax
    1a97:	69 c0 b4 8e 00 00    	imul   $0x8eb4,%eax,%eax
    1a9d:	89 44 24 10          	mov    %eax,0x10(%rsp)
    1aa1:	8b 44 24 20          	mov    0x20(%rsp),%eax
    1aa5:	69 c0 aa 06 00 00    	imul   $0x6aa,%eax,%eax
    1aab:	89 44 24 20          	mov    %eax,0x20(%rsp)
    1aaf:	8b 44 24 18          	mov    0x18(%rsp),%eax
    1ab3:	69 c0 b6 b9 00 00    	imul   $0xb9b6,%eax,%eax
    1ab9:	89 44 24 18          	mov    %eax,0x18(%rsp)
    1abd:	8b 44 24 10          	mov    0x10(%rsp),%eax
    1ac1:	69 c0 7e ed 00 00    	imul   $0xed7e,%eax,%eax
    1ac7:	89 44 24 10          	mov    %eax,0x10(%rsp)
    1acb:	8b 44 24 0c          	mov    0xc(%rsp),%eax
    1acf:	69 c0 23 fa 00 00    	imul   $0xfa23,%eax,%eax
    1ad5:	89 44 24 0c          	mov    %eax,0xc(%rsp)
    1ad9:	8b 44 24 0c          	mov    0xc(%rsp),%eax
    1add:	69 c0 c5 0f 00 00    	imul   $0xfc5,%eax,%eax
    1ae3:	89 44 24 0c          	mov    %eax,0xc(%rsp)
    1ae7:	8b 44 24 04          	mov    0x4(%rsp),%eax
    1aeb:	69 c0 d2 31 00 00    	imul   $0x31d2,%eax,%eax
    1af1:	89 44 24 04          	mov    %eax,0x4(%rsp)
    1af5:	8b 04 24             	mov    (%rsp),%eax
    1af8:	69 c0 e0 39 00 00    	imul   $0x39e0,%eax,%eax
    1afe:	89 04 24             	mov    %eax,(%rsp)
    1b01:	8b 44 24 20          	mov    0x20(%rsp),%eax
    1b05:	69 c0 f2 cf 00 00    	imul   $0xcff2,%eax,%eax
    1b0b:	89 44 24 20          	mov    %eax,0x20(%rsp)
    1b0f:	8b 44 24 08          	mov    0x8(%rsp),%eax
    1b13:	69 c0 36 6d 00 00    	imul   $0x6d36,%eax,%eax
    1b19:	89 44 24 08          	mov    %eax,0x8(%rsp)
    1b1d:	8b 44 24 14          	mov    0x14(%rsp),%eax
    1b21:	69 c0 4e 90 00 00    	imul   $0x904e,%eax,%eax
    1b27:	89 44 24 14          	mov    %eax,0x14(%rsp)
    1b2b:	8b 44 24 10          	mov    0x10(%rsp),%eax
    1b2f:	69 c0 57 b1 00 00    	imul   $0xb157,%eax,%eax
    1b35:	89 44 24 10          	mov    %eax,0x10(%rsp)
    1b39:	8b 44 24 20          	mov    0x20(%rsp),%eax
    1b3d:	69 c0 12 65 00 00    	imul   $0x6512,%eax,%eax
    1b43:	89 44 24 20          	mov    %eax,0x20(%rsp)
    1b47:	8b 44 24 0c          	mov    0xc(%rsp),%eax
    1b4b:	69 c0 b8 a2 00 00    	imul   $0xa2b8,%eax,%eax
    1b51:	89 44 24 0c          	mov    %eax,0xc(%rsp)
    1b55:	8b 04 24             	mov    (%rsp),%eax
    1b58:	69 c0 2f b9 00 00    	imul   $0xb92f,%eax,%eax
    1b5e:	89 04 24             	mov    %eax,(%rsp)
    1b61:	8b 44 24 14          	mov    0x14(%rsp),%eax
    1b65:	69 c0 28 8c 00 00    	imul   $0x8c28,%eax,%eax
    1b6b:	89 44 24 14          	mov    %eax,0x14(%rsp)
    1b6f:	8b 44 24 08          	mov    0x8(%rsp),%eax
    1b73:	69 c0 42 c6 00 00    	imul   $0xc642,%eax,%eax
    1b79:	89 44 24 08          	mov    %eax,0x8(%rsp)
    1b7d:	8b 44 24 24          	mov    0x24(%rsp),%eax
    1b81:	69 c0 be 85 00 00    	imul   $0x85be,%eax,%eax
    1b87:	89 44 24 24          	mov    %eax,0x24(%rsp)
    1b8b:	8b 44 24 10          	mov    0x10(%rsp),%eax
    1b8f:	69 c0 da 3c 00 00    	imul   $0x3cda,%eax,%eax
    1b95:	89 44 24 10          	mov    %eax,0x10(%rsp)
    1b99:	8b 44 24 0c          	mov    0xc(%rsp),%eax
    1b9d:	69 c0 15 af 00 00    	imul   $0xaf15,%eax,%eax
    1ba3:	89 44 24 0c          	mov    %eax,0xc(%rsp)
    1ba7:	8b 04 24             	mov    (%rsp),%eax
    1baa:	69 c0 40 e0 00 00    	imul   $0xe040,%eax,%eax
    1bb0:	89 04 24             	mov    %eax,(%rsp)
    1bb3:	8b 44 24 08          	mov    0x8(%rsp),%eax
    1bb7:	69 c0 21 59 00 00    	imul   $0x5921,%eax,%eax
    1bbd:	89 44 24 08          	mov    %eax,0x8(%rsp)
    1bc1:	8b 44 24 14          	mov    0x14(%rsp),%eax
    1bc5:	69 c0 2d 5a 00 00    	imul   $0x5a2d,%eax,%eax
    1bcb:	89 44 24 14          	mov    %eax,0x14(%rsp)
    1bcf:	8b 44 24 10          	mov    0x10(%rsp),%eax
    1bd3:	69 c0 4e f4 00 00    	imul   $0xf44e,%eax,%eax
    1bd9:	89 44 24 10          	mov    %eax,0x10(%rsp)
    1bdd:	8b 44 24 1c          	mov    0x1c(%rsp),%eax
    1be1:	69 c0 67 3d 00 00    	imul   $0x3d67,%eax,%eax
    1be7:	89 44 24 1c          	mov    %eax,0x1c(%rsp)
    1beb:	8b 44 24 0c          	mov    0xc(%rsp),%eax
    1bef:	69 c0 4a d9 00 00    	imul   $0xd94a,%eax,%eax
    1bf5:	89 44 24 0c          	mov    %eax,0xc(%rsp)
    1bf9:	8b 44 24 0c          	mov    0xc(%rsp),%eax
    1bfd:	69 c0 16 35 00 00    	imul   $0x3516,%eax,%eax
    1c03:	89 44 24 0c          	mov    %eax,0xc(%rsp)
    1c07:	8b 44 24 1c          	mov    0x1c(%rsp),%eax
    1c0b:	69 c0 d2 81 00 00    	imul   $0x81d2,%eax,%eax
    1c11:	89 44 24 1c          	mov    %eax,0x1c(%rsp)
    1c15:	8b 44 24 08          	mov    0x8(%rsp),%eax
    1c19:	69 c0 8d a2 00 00    	imul   $0xa28d,%eax,%eax
    1c1f:	89 44 24 08          	mov    %eax,0x8(%rsp)
    1c23:	8b 04 24             	mov    (%rsp),%eax
    1c26:	69 c0 38 3c 00 00    	imul   $0x3c38,%eax,%eax
    1c2c:	89 04 24             	mov    %eax,(%rsp)
    1c2f:	8b 44 24 10          	mov    0x10(%rsp),%eax
    1c33:	69 c0 10 c7 00 00    	imul   $0xc710,%eax,%eax
    1c39:	89 44 24 10          	mov    %eax,0x10(%rsp)
    1c3d:	8b 44 24 04          	mov    0x4(%rsp),%eax
    1c41:	69 c0 a0 a3 00 00    	imul   $0xa3a0,%eax,%eax
    1c47:	89 44 24 04          	mov    %eax,0x4(%rsp)
    1c4b:	8b 44 24 08          	mov    0x8(%rsp),%eax
    1c4f:	69 c0 32 5b 00 00    	imul   $0x5b32,%eax,%eax
    1c55:	89 44 24 08          	mov    %eax,0x8(%rsp)
    1c59:	8b 44 24 20          	mov    0x20(%rsp),%eax
    1c5d:	69 c0 4c 0d 00 00    	imul   $0xd4c,%eax,%eax
    1c63:	89 44 24 20          	mov    %eax,0x20(%rsp)
    1c67:	8b 44 24 0c          	mov    0xc(%rsp),%eax
    1c6b:	69 c0 9a 9c 00 00    	imul   $0x9c9a,%eax,%eax
    1c71:	89 44 24 0c          	mov    %eax,0xc(%rsp)
    1c75:	8b 44 24 18          	mov    0x18(%rsp),%eax
    1c79:	69 c0 0a cf 00 00    	imul   $0xcf0a,%eax,%eax
    1c7f:	89 44 24 18          	mov    %eax,0x18(%rsp)
    1c83:	8b 44 24 04          	mov    0x4(%rsp),%eax
    1c87:	69 c0 3c 7b 00 00    	imul   $0x7b3c,%eax,%eax
    1c8d:	89 44 24 04          	mov    %eax,0x4(%rsp)
    1c91:	8b 44 24 24          	mov    0x24(%rsp),%eax
    1c95:	69 c0 ec 8e 00 00    	imul   $0x8eec,%eax,%eax
    1c9b:	89 44 24 24          	mov    %eax,0x24(%rsp)
    1c9f:	8b 44 24 1c          	mov    0x1c(%rsp),%eax
    1ca3:	69 c0 2c bb 00 00    	imul   $0xbb2c,%eax,%eax
    1ca9:	89 44 24 1c          	mov    %eax,0x1c(%rsp)
    1cad:	8b 44 24 0c          	mov    0xc(%rsp),%eax
    1cb1:	69 c0 89 ff 00 00    	imul   $0xff89,%eax,%eax
    1cb7:	89 44 24 0c          	mov    %eax,0xc(%rsp)
    1cbb:	8b 44 24 08          	mov    0x8(%rsp),%eax
    1cbf:	69 c0 c0 e4 00 00    	imul   $0xe4c0,%eax,%eax
    1cc5:	89 44 24 08          	mov    %eax,0x8(%rsp)
    1cc9:	8b 44 24 20          	mov    0x20(%rsp),%eax
    1ccd:	69 c0 49 c6 00 00    	imul   $0xc649,%eax,%eax
    1cd3:	89 44 24 20          	mov    %eax,0x20(%rsp)
    1cd7:	8b 44 24 1c          	mov    0x1c(%rsp),%eax
    1cdb:	69 c0 75 63 00 00    	imul   $0x6375,%eax,%eax
    1ce1:	89 44 24 1c          	mov    %eax,0x1c(%rsp)
    1ce5:	8b 44 24 0c          	mov    0xc(%rsp),%eax
    1ce9:	69 c0 ff b3 00 00    	imul   $0xb3ff,%eax,%eax
    1cef:	89 44 24 0c          	mov    %eax,0xc(%rsp)
    1cf3:	8b 44 24 1c          	mov    0x1c(%rsp),%eax
    1cf7:	69 c0 a5 6c 00 00    	imul   $0x6ca5,%eax,%eax
    1cfd:	89 44 24 1c          	mov    %eax,0x1c(%rsp)
    1d01:	8b 44 24 14          	mov    0x14(%rsp),%eax
    1d05:	69 c0 bf 61 00 00    	imul   $0x61bf,%eax,%eax
    1d0b:	89 44 24 14          	mov    %eax,0x14(%rsp)
    1d0f:	8b 44 24 04          	mov    0x4(%rsp),%eax
    1d13:	69 c0 97 b8 00 00    	imul   $0xb897,%eax,%eax
    1d19:	89 44 24 04          	mov    %eax,0x4(%rsp)
    1d1d:	8b 44 24 04          	mov    0x4(%rsp),%eax
    1d21:	69 c0 08 c1 00 00    	imul   $0xc108,%eax,%eax
    1d27:	89 44 24 04          	mov    %eax,0x4(%rsp)
    1d2b:	8b 44 24 20          	mov    0x20(%rsp),%eax
    1d2f:	69 c0 bd 2e 00 00    	imul   $0x2ebd,%eax,%eax
    1d35:	89 44 24 20          	mov    %eax,0x20(%rsp)
    1d39:	8b 44 24 08          	mov    0x8(%rsp),%eax
    1d3d:	69 c0 d6 ab 00 00    	imul   $0xabd6,%eax,%eax
    1d43:	89 44 24 08          	mov    %eax,0x8(%rsp)
    1d47:	8b 44 24 10          	mov    0x10(%rsp),%eax
    1d4b:	69 c0 b6 8a 00 00    	imul   $0x8ab6,%eax,%eax
    1d51:	89 44 24 10          	mov    %eax,0x10(%rsp)
    1d55:	8b 04 24             	mov    (%rsp),%eax
    1d58:	69 c0 32 48 00 00    	imul   $0x4832,%eax,%eax
    1d5e:	89 04 24             	mov    %eax,(%rsp)
    1d61:	8b 44 24 0c          	mov    0xc(%rsp),%eax
    1d65:	69 c0 0b a3 00 00    	imul   $0xa30b,%eax,%eax
    1d6b:	89 44 24 0c          	mov    %eax,0xc(%rsp)
    1d6f:	8b 44 24 0c          	mov    0xc(%rsp),%eax
    1d73:	69 c0 5b db 00 00    	imul   $0xdb5b,%eax,%eax
    1d79:	89 44 24 0c          	mov    %eax,0xc(%rsp)
    1d7d:	8b 44 24 1c          	mov    0x1c(%rsp),%eax
    1d81:	69 c0 5a 5a 00 00    	imul   $0x5a5a,%eax,%eax
    1d87:	89 44 24 1c          	mov    %eax,0x1c(%rsp)
    1d8b:	8b 44 24 10          	mov    0x10(%rsp),%eax
    1d8f:	69 c0 ca 56 00 00    	imul   $0x56ca,%eax,%eax
    1d95:	89 44 24 10          	mov    %eax,0x10(%rsp)
    1d99:	8b 44 24 14          	mov    0x14(%rsp),%eax
    1d9d:	69 c0 b9 b3 00 00    	imul   $0xb3b9,%eax,%eax
    1da3:	89 44 24 14          	mov    %eax,0x14(%rsp)
    1da7:	8b 04 24             	mov    (%rsp),%eax
    1daa:	69 c0 f0 58 00 00    	imul   $0x58f0,%eax,%eax
    1db0:	89 04 24             	mov    %eax,(%rsp)
    1db3:	8b 44 24 08          	mov    0x8(%rsp),%eax
    1db7:	69 c0 2e 65 00 00    	imul   $0x652e,%eax,%eax
    1dbd:	89 44 24 08          	mov    %eax,0x8(%rsp)
    1dc1:	8b 44 24 14          	mov    0x14(%rsp),%eax
    1dc5:	69 c0 31 1d 00 00    	imul   $0x1d31,%eax,%eax
    1dcb:	89 44 24 14          	mov    %eax,0x14(%rsp)
    1dcf:	8b 44 24 24          	mov    0x24(%rsp),%eax
    1dd3:	69 c0 27 fd 00 00    	imul   $0xfd27,%eax,%eax
    1dd9:	89 44 24 24          	mov    %eax,0x24(%rsp)
    1ddd:	8b 44 24 14          	mov    0x14(%rsp),%eax
    1de1:	69 c0 89 05 00 00    	imul   $0x589,%eax,%eax
    1de7:	89 44 24 14          	mov    %eax,0x14(%rsp)
    1deb:	8b 44 24 04          	mov    0x4(%rsp),%eax
    1def:	69 c0 50 84 00 00    	imul   $0x8450,%eax,%eax
    1df5:	89 44 24 04          	mov    %eax,0x4(%rsp)
    1df9:	b8 00 00 00 00       	mov    $0x0,%eax
    1dfe:	ba 00 00 00 00       	mov    $0x0,%edx
    1e03:	83 f8 09             	cmp    $0x9,%eax
    1e06:	77 0c                	ja     1e14 <scramble+0x4a4>
    1e08:	89 c1                	mov    %eax,%ecx
    1e0a:	8b 0c 8c             	mov    (%rsp,%rcx,4),%ecx
    1e0d:	01 ca                	add    %ecx,%edx
    1e0f:	83 c0 01             	add    $0x1,%eax
    1e12:	eb ef                	jmp    1e03 <scramble+0x493>
    1e14:	48 8b 44 24 28       	mov    0x28(%rsp),%rax
    1e19:	64 48 33 04 25 28 00 	xor    %fs:0x28,%rax
    1e20:	00 00 
    1e22:	75 07                	jne    1e2b <scramble+0x4bb>
    1e24:	89 d0                	mov    %edx,%eax
    1e26:	48 83 c4 38          	add    $0x38,%rsp
    1e2a:	c3                   	retq   
    1e2b:	e8 90 f4 ff ff       	callq  12c0 <__stack_chk_fail@plt>

0000000000001e30 <getbuf>:
    1e30:	f3 0f 1e fa          	endbr64 
    1e34:	48 83 ec 28          	sub    $0x28,%rsp
    1e38:	48 89 e7             	mov    %rsp,%rdi
    1e3b:	e8 b5 02 00 00       	callq  20f5 <Gets>
    1e40:	b8 01 00 00 00       	mov    $0x1,%eax
    1e45:	48 83 c4 28          	add    $0x28,%rsp
    1e49:	c3                   	retq   

0000000000001e4a <touch1>:
    1e4a:	f3 0f 1e fa          	endbr64 
    1e4e:	50                   	push   %rax
    1e4f:	58                   	pop    %rax
    1e50:	48 83 ec 08          	sub    $0x8,%rsp
    1e54:	c7 05 62 55 00 00 01 	movl   $0x1,0x5562(%rip)        # 73c0 <vlevel>
    1e5b:	00 00 00 
    1e5e:	48 8d 3d 37 24 00 00 	lea    0x2437(%rip),%rdi        # 429c <_IO_stdin_used+0x29c>
    1e65:	e8 36 f4 ff ff       	callq  12a0 <puts@plt>
    1e6a:	bf 01 00 00 00       	mov    $0x1,%edi
    1e6f:	e8 d0 03 00 00       	callq  2244 <validate>
    1e74:	bf 00 00 00 00       	mov    $0x0,%edi
    1e79:	e8 82 f5 ff ff       	callq  1400 <exit@plt>

0000000000001e7e <touch2>:
    1e7e:	f3 0f 1e fa          	endbr64 
    1e82:	50                   	push   %rax
    1e83:	58                   	pop    %rax
    1e84:	48 83 ec 08          	sub    $0x8,%rsp
    1e88:	89 fa                	mov    %edi,%edx
    1e8a:	c7 05 2c 55 00 00 02 	movl   $0x2,0x552c(%rip)        # 73c0 <vlevel>
    1e91:	00 00 00 
    1e94:	39 3d 2e 55 00 00    	cmp    %edi,0x552e(%rip)        # 73c8 <cookie>
    1e9a:	74 2a                	je     1ec6 <touch2+0x48>
    1e9c:	48 8d 35 45 24 00 00 	lea    0x2445(%rip),%rsi        # 42e8 <_IO_stdin_used+0x2e8>
    1ea3:	bf 01 00 00 00       	mov    $0x1,%edi
    1ea8:	b8 00 00 00 00       	mov    $0x0,%eax
    1ead:	e8 fe f4 ff ff       	callq  13b0 <__printf_chk@plt>
    1eb2:	bf 02 00 00 00       	mov    $0x2,%edi
    1eb7:	e8 5c 04 00 00       	callq  2318 <fail>
    1ebc:	bf 00 00 00 00       	mov    $0x0,%edi
    1ec1:	e8 3a f5 ff ff       	callq  1400 <exit@plt>
    1ec6:	48 8d 35 f3 23 00 00 	lea    0x23f3(%rip),%rsi        # 42c0 <_IO_stdin_used+0x2c0>
    1ecd:	bf 01 00 00 00       	mov    $0x1,%edi
    1ed2:	b8 00 00 00 00       	mov    $0x0,%eax
    1ed7:	e8 d4 f4 ff ff       	callq  13b0 <__printf_chk@plt>
    1edc:	bf 02 00 00 00       	mov    $0x2,%edi
    1ee1:	e8 5e 03 00 00       	callq  2244 <validate>
    1ee6:	eb d4                	jmp    1ebc <touch2+0x3e>

0000000000001ee8 <hexmatch>:
    1ee8:	f3 0f 1e fa          	endbr64 
    1eec:	41 55                	push   %r13
    1eee:	41 54                	push   %r12
    1ef0:	55                   	push   %rbp
    1ef1:	53                   	push   %rbx
    1ef2:	48 81 ec 88 00 00 00 	sub    $0x88,%rsp
    1ef9:	89 fd                	mov    %edi,%ebp
    1efb:	48 89 f3             	mov    %rsi,%rbx
    1efe:	41 bc 28 00 00 00    	mov    $0x28,%r12d
    1f04:	64 49 8b 04 24       	mov    %fs:(%r12),%rax
    1f09:	48 89 44 24 78       	mov    %rax,0x78(%rsp)
    1f0e:	31 c0                	xor    %eax,%eax
    1f10:	e8 6b f4 ff ff       	callq  1380 <random@plt>
    1f15:	48 89 c1             	mov    %rax,%rcx
    1f18:	48 ba 0b d7 a3 70 3d 	movabs $0xa3d70a3d70a3d70b,%rdx
    1f1f:	0a d7 a3 
    1f22:	48 f7 ea             	imul   %rdx
    1f25:	48 01 ca             	add    %rcx,%rdx
    1f28:	48 c1 fa 06          	sar    $0x6,%rdx
    1f2c:	48 89 c8             	mov    %rcx,%rax
    1f2f:	48 c1 f8 3f          	sar    $0x3f,%rax
    1f33:	48 29 c2             	sub    %rax,%rdx
    1f36:	48 8d 04 92          	lea    (%rdx,%rdx,4),%rax
    1f3a:	48 8d 04 80          	lea    (%rax,%rax,4),%rax
    1f3e:	48 c1 e0 02          	shl    $0x2,%rax
    1f42:	48 29 c1             	sub    %rax,%rcx
    1f45:	4c 8d 2c 0c          	lea    (%rsp,%rcx,1),%r13
    1f49:	41 89 e8             	mov    %ebp,%r8d
    1f4c:	48 8d 0d 66 23 00 00 	lea    0x2366(%rip),%rcx        # 42b9 <_IO_stdin_used+0x2b9>
    1f53:	48 c7 c2 ff ff ff ff 	mov    $0xffffffffffffffff,%rdx
    1f5a:	be 01 00 00 00       	mov    $0x1,%esi
    1f5f:	4c 89 ef             	mov    %r13,%rdi
    1f62:	b8 00 00 00 00       	mov    $0x0,%eax
    1f67:	e8 d4 f4 ff ff       	callq  1440 <__sprintf_chk@plt>
    1f6c:	ba 09 00 00 00       	mov    $0x9,%edx
    1f71:	4c 89 ee             	mov    %r13,%rsi
    1f74:	48 89 df             	mov    %rbx,%rdi
    1f77:	e8 04 f3 ff ff       	callq  1280 <strncmp@plt>
    1f7c:	85 c0                	test   %eax,%eax
    1f7e:	0f 94 c0             	sete   %al
    1f81:	48 8b 5c 24 78       	mov    0x78(%rsp),%rbx
    1f86:	64 49 33 1c 24       	xor    %fs:(%r12),%rbx
    1f8b:	75 11                	jne    1f9e <hexmatch+0xb6>
    1f8d:	0f b6 c0             	movzbl %al,%eax
    1f90:	48 81 c4 88 00 00 00 	add    $0x88,%rsp
    1f97:	5b                   	pop    %rbx
    1f98:	5d                   	pop    %rbp
    1f99:	41 5c                	pop    %r12
    1f9b:	41 5d                	pop    %r13
    1f9d:	c3                   	retq   
    1f9e:	e8 1d f3 ff ff       	callq  12c0 <__stack_chk_fail@plt>

0000000000001fa3 <touch3>:
    1fa3:	f3 0f 1e fa          	endbr64 
    1fa7:	53                   	push   %rbx
    1fa8:	48 89 fb             	mov    %rdi,%rbx
    1fab:	c7 05 0b 54 00 00 03 	movl   $0x3,0x540b(%rip)        # 73c0 <vlevel>
    1fb2:	00 00 00 
    1fb5:	48 89 fe             	mov    %rdi,%rsi
    1fb8:	8b 3d 0a 54 00 00    	mov    0x540a(%rip),%edi        # 73c8 <cookie>
    1fbe:	e8 25 ff ff ff       	callq  1ee8 <hexmatch>
    1fc3:	85 c0                	test   %eax,%eax
    1fc5:	74 2d                	je     1ff4 <touch3+0x51>
    1fc7:	48 89 da             	mov    %rbx,%rdx
    1fca:	48 8d 35 3f 23 00 00 	lea    0x233f(%rip),%rsi        # 4310 <_IO_stdin_used+0x310>
    1fd1:	bf 01 00 00 00       	mov    $0x1,%edi
    1fd6:	b8 00 00 00 00       	mov    $0x0,%eax
    1fdb:	e8 d0 f3 ff ff       	callq  13b0 <__printf_chk@plt>
    1fe0:	bf 03 00 00 00       	mov    $0x3,%edi
    1fe5:	e8 5a 02 00 00       	callq  2244 <validate>
    1fea:	bf 00 00 00 00       	mov    $0x0,%edi
    1fef:	e8 0c f4 ff ff       	callq  1400 <exit@plt>
    1ff4:	48 89 da             	mov    %rbx,%rdx
    1ff7:	48 8d 35 3a 23 00 00 	lea    0x233a(%rip),%rsi        # 4338 <_IO_stdin_used+0x338>
    1ffe:	bf 01 00 00 00       	mov    $0x1,%edi
    2003:	b8 00 00 00 00       	mov    $0x0,%eax
    2008:	e8 a3 f3 ff ff       	callq  13b0 <__printf_chk@plt>
    200d:	bf 03 00 00 00       	mov    $0x3,%edi
    2012:	e8 01 03 00 00       	callq  2318 <fail>
    2017:	eb d1                	jmp    1fea <touch3+0x47>

0000000000002019 <test>:
    2019:	f3 0f 1e fa          	endbr64 
    201d:	48 83 ec 08          	sub    $0x8,%rsp
    2021:	b8 00 00 00 00       	mov    $0x0,%eax
    2026:	e8 05 fe ff ff       	callq  1e30 <getbuf>
    202b:	89 c2                	mov    %eax,%edx
    202d:	48 8d 35 2c 23 00 00 	lea    0x232c(%rip),%rsi        # 4360 <_IO_stdin_used+0x360>
    2034:	bf 01 00 00 00       	mov    $0x1,%edi
    2039:	b8 00 00 00 00       	mov    $0x0,%eax
    203e:	e8 6d f3 ff ff       	callq  13b0 <__printf_chk@plt>
    2043:	48 83 c4 08          	add    $0x8,%rsp
    2047:	c3                   	retq   

0000000000002048 <save_char>:
    2048:	8b 05 96 5f 00 00    	mov    0x5f96(%rip),%eax        # 7fe4 <gets_cnt>
    204e:	3d ff 03 00 00       	cmp    $0x3ff,%eax
    2053:	7f 4a                	jg     209f <save_char+0x57>
    2055:	89 f9                	mov    %edi,%ecx
    2057:	c0 e9 04             	shr    $0x4,%cl
    205a:	8d 14 40             	lea    (%rax,%rax,2),%edx
    205d:	4c 8d 05 6c 25 00 00 	lea    0x256c(%rip),%r8        # 45d0 <trans_char>
    2064:	83 e1 0f             	and    $0xf,%ecx
    2067:	45 0f b6 0c 08       	movzbl (%r8,%rcx,1),%r9d
    206c:	48 8d 0d 6d 53 00 00 	lea    0x536d(%rip),%rcx        # 73e0 <gets_buf>
    2073:	48 63 f2             	movslq %edx,%rsi
    2076:	44 88 0c 31          	mov    %r9b,(%rcx,%rsi,1)
    207a:	8d 72 01             	lea    0x1(%rdx),%esi
    207d:	83 e7 0f             	and    $0xf,%edi
    2080:	41 0f b6 3c 38       	movzbl (%r8,%rdi,1),%edi
    2085:	48 63 f6             	movslq %esi,%rsi
    2088:	40 88 3c 31          	mov    %dil,(%rcx,%rsi,1)
    208c:	83 c2 02             	add    $0x2,%edx
    208f:	48 63 d2             	movslq %edx,%rdx
    2092:	c6 04 11 20          	movb   $0x20,(%rcx,%rdx,1)
    2096:	83 c0 01             	add    $0x1,%eax
    2099:	89 05 45 5f 00 00    	mov    %eax,0x5f45(%rip)        # 7fe4 <gets_cnt>
    209f:	c3                   	retq   

00000000000020a0 <save_term>:
    20a0:	8b 05 3e 5f 00 00    	mov    0x5f3e(%rip),%eax        # 7fe4 <gets_cnt>
    20a6:	8d 04 40             	lea    (%rax,%rax,2),%eax
    20a9:	48 98                	cltq   
    20ab:	48 8d 15 2e 53 00 00 	lea    0x532e(%rip),%rdx        # 73e0 <gets_buf>
    20b2:	c6 04 02 00          	movb   $0x0,(%rdx,%rax,1)
    20b6:	c3                   	retq   

00000000000020b7 <check_fail>:
    20b7:	f3 0f 1e fa          	endbr64 
    20bb:	50                   	push   %rax
    20bc:	58                   	pop    %rax
    20bd:	48 83 ec 08          	sub    $0x8,%rsp
    20c1:	0f be 15 20 5f 00 00 	movsbl 0x5f20(%rip),%edx        # 7fe8 <target_prefix>
    20c8:	4c 8d 05 11 53 00 00 	lea    0x5311(%rip),%r8        # 73e0 <gets_buf>
    20cf:	8b 0d e7 52 00 00    	mov    0x52e7(%rip),%ecx        # 73bc <check_level>
    20d5:	48 8d 35 a7 22 00 00 	lea    0x22a7(%rip),%rsi        # 4383 <_IO_stdin_used+0x383>
    20dc:	bf 01 00 00 00       	mov    $0x1,%edi
    20e1:	b8 00 00 00 00       	mov    $0x0,%eax
    20e6:	e8 c5 f2 ff ff       	callq  13b0 <__printf_chk@plt>
    20eb:	bf 01 00 00 00       	mov    $0x1,%edi
    20f0:	e8 0b f3 ff ff       	callq  1400 <exit@plt>

00000000000020f5 <Gets>:
    20f5:	f3 0f 1e fa          	endbr64 
    20f9:	41 54                	push   %r12
    20fb:	55                   	push   %rbp
    20fc:	53                   	push   %rbx
    20fd:	49 89 fc             	mov    %rdi,%r12
    2100:	c7 05 da 5e 00 00 00 	movl   $0x0,0x5eda(%rip)        # 7fe4 <gets_cnt>
    2107:	00 00 00 
    210a:	48 89 fb             	mov    %rdi,%rbx
    210d:	48 8b 3d 9c 52 00 00 	mov    0x529c(%rip),%rdi        # 73b0 <infile>
    2114:	e8 17 f3 ff ff       	callq  1430 <getc@plt>
    2119:	83 f8 ff             	cmp    $0xffffffff,%eax
    211c:	74 18                	je     2136 <Gets+0x41>
    211e:	83 f8 0a             	cmp    $0xa,%eax
    2121:	74 13                	je     2136 <Gets+0x41>
    2123:	48 8d 6b 01          	lea    0x1(%rbx),%rbp
    2127:	88 03                	mov    %al,(%rbx)
    2129:	0f b6 f8             	movzbl %al,%edi
    212c:	e8 17 ff ff ff       	callq  2048 <save_char>
    2131:	48 89 eb             	mov    %rbp,%rbx
    2134:	eb d7                	jmp    210d <Gets+0x18>
    2136:	c6 03 00             	movb   $0x0,(%rbx)
    2139:	b8 00 00 00 00       	mov    $0x0,%eax
    213e:	e8 5d ff ff ff       	callq  20a0 <save_term>
    2143:	4c 89 e0             	mov    %r12,%rax
    2146:	5b                   	pop    %rbx
    2147:	5d                   	pop    %rbp
    2148:	41 5c                	pop    %r12
    214a:	c3                   	retq   

000000000000214b <notify_server>:
    214b:	f3 0f 1e fa          	endbr64 
    214f:	53                   	push   %rbx
    2150:	48 81 ec 00 10 00 00 	sub    $0x1000,%rsp
    2157:	48 83 0c 24 00       	orq    $0x0,(%rsp)
    215c:	48 81 ec 00 10 00 00 	sub    $0x1000,%rsp
    2163:	48 83 0c 24 00       	orq    $0x0,(%rsp)
    2168:	48 83 ec 10          	sub    $0x10,%rsp
    216c:	64 48 8b 04 25 28 00 	mov    %fs:0x28,%rax
    2173:	00 00 
    2175:	48 89 84 24 08 20 00 	mov    %rax,0x2008(%rsp)
    217c:	00 
    217d:	31 c0                	xor    %eax,%eax
    217f:	83 3d 46 52 00 00 00 	cmpl   $0x0,0x5246(%rip)        # 73cc <is_checker>
    2186:	0f 85 8e 00 00 00    	jne    221a <notify_server+0xcf>
    218c:	81 3d 4e 5e 00 00 9c 	cmpl   $0x1f9c,0x5e4e(%rip)        # 7fe4 <gets_cnt>
    2193:	1f 00 00 
    2196:	7f 18                	jg     21b0 <notify_server+0x65>
    2198:	0f be 05 49 5e 00 00 	movsbl 0x5e49(%rip),%eax        # 7fe8 <target_prefix>
    219f:	83 3d 12 52 00 00 00 	cmpl   $0x0,0x5212(%rip)        # 73b8 <notify>
    21a6:	74 23                	je     21cb <notify_server+0x80>
    21a8:	8b 15 16 52 00 00    	mov    0x5216(%rip),%edx        # 73c4 <authkey>
    21ae:	eb 20                	jmp    21d0 <notify_server+0x85>
    21b0:	48 8d 35 b1 22 00 00 	lea    0x22b1(%rip),%rsi        # 4468 <_IO_stdin_used+0x468>
    21b7:	bf 01 00 00 00       	mov    $0x1,%edi
    21bc:	e8 ef f1 ff ff       	callq  13b0 <__printf_chk@plt>
    21c1:	bf 01 00 00 00       	mov    $0x1,%edi
    21c6:	e8 35 f2 ff ff       	callq  1400 <exit@plt>
    21cb:	ba ff ff ff ff       	mov    $0xffffffff,%edx
    21d0:	85 ff                	test   %edi,%edi
    21d2:	74 62                	je     2236 <notify_server+0xeb>
    21d4:	48 8d 1d c3 21 00 00 	lea    0x21c3(%rip),%rbx        # 439e <_IO_stdin_used+0x39e>
    21db:	48 89 e7             	mov    %rsp,%rdi
    21de:	48 8d 0d fb 51 00 00 	lea    0x51fb(%rip),%rcx        # 73e0 <gets_buf>
    21e5:	51                   	push   %rcx
    21e6:	56                   	push   %rsi
    21e7:	50                   	push   %rax
    21e8:	52                   	push   %rdx
    21e9:	49 89 d9             	mov    %rbx,%r9
    21ec:	44 8b 05 1d 4e 00 00 	mov    0x4e1d(%rip),%r8d        # 7010 <target_id>
    21f3:	48 8d 0d a9 21 00 00 	lea    0x21a9(%rip),%rcx        # 43a3 <_IO_stdin_used+0x3a3>
    21fa:	ba 00 20 00 00       	mov    $0x2000,%edx
    21ff:	be 01 00 00 00       	mov    $0x1,%esi
    2204:	b8 00 00 00 00       	mov    $0x0,%eax
    2209:	e8 32 f2 ff ff       	callq  1440 <__sprintf_chk@plt>
    220e:	48 83 c4 20          	add    $0x20,%rsp
    2212:	48 89 df             	mov    %rbx,%rdi
    2215:	e8 86 f0 ff ff       	callq  12a0 <puts@plt>
    221a:	48 8b 84 24 08 20 00 	mov    0x2008(%rsp),%rax
    2221:	00 
    2222:	64 48 33 04 25 28 00 	xor    %fs:0x28,%rax
    2229:	00 00 
    222b:	75 12                	jne    223f <notify_server+0xf4>
    222d:	48 81 c4 10 20 00 00 	add    $0x2010,%rsp
    2234:	5b                   	pop    %rbx
    2235:	c3                   	retq   
    2236:	48 8d 1d 5c 21 00 00 	lea    0x215c(%rip),%rbx        # 4399 <_IO_stdin_used+0x399>
    223d:	eb 9c                	jmp    21db <notify_server+0x90>
    223f:	e8 7c f0 ff ff       	callq  12c0 <__stack_chk_fail@plt>

0000000000002244 <validate>:
    2244:	f3 0f 1e fa          	endbr64 
    2248:	53                   	push   %rbx
    2249:	89 fb                	mov    %edi,%ebx
    224b:	83 3d 7a 51 00 00 00 	cmpl   $0x0,0x517a(%rip)        # 73cc <is_checker>
    2252:	74 72                	je     22c6 <validate+0x82>
    2254:	39 3d 66 51 00 00    	cmp    %edi,0x5166(%rip)        # 73c0 <vlevel>
    225a:	75 32                	jne    228e <validate+0x4a>
    225c:	8b 15 5a 51 00 00    	mov    0x515a(%rip),%edx        # 73bc <check_level>
    2262:	39 fa                	cmp    %edi,%edx
    2264:	75 3e                	jne    22a4 <validate+0x60>
    2266:	0f be 15 7b 5d 00 00 	movsbl 0x5d7b(%rip),%edx        # 7fe8 <target_prefix>
    226d:	4c 8d 05 6c 51 00 00 	lea    0x516c(%rip),%r8        # 73e0 <gets_buf>
    2274:	89 f9                	mov    %edi,%ecx
    2276:	48 8d 35 60 21 00 00 	lea    0x2160(%rip),%rsi        # 43dd <_IO_stdin_used+0x3dd>
    227d:	bf 01 00 00 00       	mov    $0x1,%edi
    2282:	b8 00 00 00 00       	mov    $0x0,%eax
    2287:	e8 24 f1 ff ff       	callq  13b0 <__printf_chk@plt>
    228c:	5b                   	pop    %rbx
    228d:	c3                   	retq   
    228e:	48 8d 3d 2a 21 00 00 	lea    0x212a(%rip),%rdi        # 43bf <_IO_stdin_used+0x3bf>
    2295:	e8 06 f0 ff ff       	callq  12a0 <puts@plt>
    229a:	b8 00 00 00 00       	mov    $0x0,%eax
    229f:	e8 13 fe ff ff       	callq  20b7 <check_fail>
    22a4:	89 f9                	mov    %edi,%ecx
    22a6:	48 8d 35 eb 21 00 00 	lea    0x21eb(%rip),%rsi        # 4498 <_IO_stdin_used+0x498>
    22ad:	bf 01 00 00 00       	mov    $0x1,%edi
    22b2:	b8 00 00 00 00       	mov    $0x0,%eax
    22b7:	e8 f4 f0 ff ff       	callq  13b0 <__printf_chk@plt>
    22bc:	b8 00 00 00 00       	mov    $0x0,%eax
    22c1:	e8 f1 fd ff ff       	callq  20b7 <check_fail>
    22c6:	39 3d f4 50 00 00    	cmp    %edi,0x50f4(%rip)        # 73c0 <vlevel>
    22cc:	74 1a                	je     22e8 <validate+0xa4>
    22ce:	48 8d 3d ea 20 00 00 	lea    0x20ea(%rip),%rdi        # 43bf <_IO_stdin_used+0x3bf>
    22d5:	e8 c6 ef ff ff       	callq  12a0 <puts@plt>
    22da:	89 de                	mov    %ebx,%esi
    22dc:	bf 00 00 00 00       	mov    $0x0,%edi
    22e1:	e8 65 fe ff ff       	callq  214b <notify_server>
    22e6:	eb a4                	jmp    228c <validate+0x48>
    22e8:	0f be 0d f9 5c 00 00 	movsbl 0x5cf9(%rip),%ecx        # 7fe8 <target_prefix>
    22ef:	89 fa                	mov    %edi,%edx
    22f1:	48 8d 35 c8 21 00 00 	lea    0x21c8(%rip),%rsi        # 44c0 <_IO_stdin_used+0x4c0>
    22f8:	bf 01 00 00 00       	mov    $0x1,%edi
    22fd:	b8 00 00 00 00       	mov    $0x0,%eax
    2302:	e8 a9 f0 ff ff       	callq  13b0 <__printf_chk@plt>
    2307:	89 de                	mov    %ebx,%esi
    2309:	bf 01 00 00 00       	mov    $0x1,%edi
    230e:	e8 38 fe ff ff       	callq  214b <notify_server>
    2313:	e9 74 ff ff ff       	jmpq   228c <validate+0x48>

0000000000002318 <fail>:
    2318:	f3 0f 1e fa          	endbr64 
    231c:	48 83 ec 08          	sub    $0x8,%rsp
    2320:	83 3d a5 50 00 00 00 	cmpl   $0x0,0x50a5(%rip)        # 73cc <is_checker>
    2327:	75 11                	jne    233a <fail+0x22>
    2329:	89 fe                	mov    %edi,%esi
    232b:	bf 00 00 00 00       	mov    $0x0,%edi
    2330:	e8 16 fe ff ff       	callq  214b <notify_server>
    2335:	48 83 c4 08          	add    $0x8,%rsp
    2339:	c3                   	retq   
    233a:	b8 00 00 00 00       	mov    $0x0,%eax
    233f:	e8 73 fd ff ff       	callq  20b7 <check_fail>

0000000000002344 <bushandler>:
    2344:	f3 0f 1e fa          	endbr64 
    2348:	50                   	push   %rax
    2349:	58                   	pop    %rax
    234a:	48 83 ec 08          	sub    $0x8,%rsp
    234e:	83 3d 77 50 00 00 00 	cmpl   $0x0,0x5077(%rip)        # 73cc <is_checker>
    2355:	74 16                	je     236d <bushandler+0x29>
    2357:	48 8d 3d 94 20 00 00 	lea    0x2094(%rip),%rdi        # 43f2 <_IO_stdin_used+0x3f2>
    235e:	e8 3d ef ff ff       	callq  12a0 <puts@plt>
    2363:	b8 00 00 00 00       	mov    $0x0,%eax
    2368:	e8 4a fd ff ff       	callq  20b7 <check_fail>
    236d:	48 8d 3d 84 21 00 00 	lea    0x2184(%rip),%rdi        # 44f8 <_IO_stdin_used+0x4f8>
    2374:	e8 27 ef ff ff       	callq  12a0 <puts@plt>
    2379:	48 8d 3d 7c 20 00 00 	lea    0x207c(%rip),%rdi        # 43fc <_IO_stdin_used+0x3fc>
    2380:	e8 1b ef ff ff       	callq  12a0 <puts@plt>
    2385:	be 00 00 00 00       	mov    $0x0,%esi
    238a:	bf 00 00 00 00       	mov    $0x0,%edi
    238f:	e8 b7 fd ff ff       	callq  214b <notify_server>
    2394:	bf 01 00 00 00       	mov    $0x1,%edi
    2399:	e8 62 f0 ff ff       	callq  1400 <exit@plt>

000000000000239e <seghandler>:
    239e:	f3 0f 1e fa          	endbr64 
    23a2:	50                   	push   %rax
    23a3:	58                   	pop    %rax
    23a4:	48 83 ec 08          	sub    $0x8,%rsp
    23a8:	83 3d 1d 50 00 00 00 	cmpl   $0x0,0x501d(%rip)        # 73cc <is_checker>
    23af:	74 16                	je     23c7 <seghandler+0x29>
    23b1:	48 8d 3d 5a 20 00 00 	lea    0x205a(%rip),%rdi        # 4412 <_IO_stdin_used+0x412>
    23b8:	e8 e3 ee ff ff       	callq  12a0 <puts@plt>
    23bd:	b8 00 00 00 00       	mov    $0x0,%eax
    23c2:	e8 f0 fc ff ff       	callq  20b7 <check_fail>
    23c7:	48 8d 3d 4a 21 00 00 	lea    0x214a(%rip),%rdi        # 4518 <_IO_stdin_used+0x518>
    23ce:	e8 cd ee ff ff       	callq  12a0 <puts@plt>
    23d3:	48 8d 3d 22 20 00 00 	lea    0x2022(%rip),%rdi        # 43fc <_IO_stdin_used+0x3fc>
    23da:	e8 c1 ee ff ff       	callq  12a0 <puts@plt>
    23df:	be 00 00 00 00       	mov    $0x0,%esi
    23e4:	bf 00 00 00 00       	mov    $0x0,%edi
    23e9:	e8 5d fd ff ff       	callq  214b <notify_server>
    23ee:	bf 01 00 00 00       	mov    $0x1,%edi
    23f3:	e8 08 f0 ff ff       	callq  1400 <exit@plt>

00000000000023f8 <illegalhandler>:
    23f8:	f3 0f 1e fa          	endbr64 
    23fc:	50                   	push   %rax
    23fd:	58                   	pop    %rax
    23fe:	48 83 ec 08          	sub    $0x8,%rsp
    2402:	83 3d c3 4f 00 00 00 	cmpl   $0x0,0x4fc3(%rip)        # 73cc <is_checker>
    2409:	74 16                	je     2421 <illegalhandler+0x29>
    240b:	48 8d 3d 13 20 00 00 	lea    0x2013(%rip),%rdi        # 4425 <_IO_stdin_used+0x425>
    2412:	e8 89 ee ff ff       	callq  12a0 <puts@plt>
    2417:	b8 00 00 00 00       	mov    $0x0,%eax
    241c:	e8 96 fc ff ff       	callq  20b7 <check_fail>
    2421:	48 8d 3d 18 21 00 00 	lea    0x2118(%rip),%rdi        # 4540 <_IO_stdin_used+0x540>
    2428:	e8 73 ee ff ff       	callq  12a0 <puts@plt>
    242d:	48 8d 3d c8 1f 00 00 	lea    0x1fc8(%rip),%rdi        # 43fc <_IO_stdin_used+0x3fc>
    2434:	e8 67 ee ff ff       	callq  12a0 <puts@plt>
    2439:	be 00 00 00 00       	mov    $0x0,%esi
    243e:	bf 00 00 00 00       	mov    $0x0,%edi
    2443:	e8 03 fd ff ff       	callq  214b <notify_server>
    2448:	bf 01 00 00 00       	mov    $0x1,%edi
    244d:	e8 ae ef ff ff       	callq  1400 <exit@plt>

0000000000002452 <sigalrmhandler>:
    2452:	f3 0f 1e fa          	endbr64 
    2456:	50                   	push   %rax
    2457:	58                   	pop    %rax
    2458:	48 83 ec 08          	sub    $0x8,%rsp
    245c:	83 3d 69 4f 00 00 00 	cmpl   $0x0,0x4f69(%rip)        # 73cc <is_checker>
    2463:	74 16                	je     247b <sigalrmhandler+0x29>
    2465:	48 8d 3d cd 1f 00 00 	lea    0x1fcd(%rip),%rdi        # 4439 <_IO_stdin_used+0x439>
    246c:	e8 2f ee ff ff       	callq  12a0 <puts@plt>
    2471:	b8 00 00 00 00       	mov    $0x0,%eax
    2476:	e8 3c fc ff ff       	callq  20b7 <check_fail>
    247b:	ba 05 00 00 00       	mov    $0x5,%edx
    2480:	48 8d 35 e9 20 00 00 	lea    0x20e9(%rip),%rsi        # 4570 <_IO_stdin_used+0x570>
    2487:	bf 01 00 00 00       	mov    $0x1,%edi
    248c:	b8 00 00 00 00       	mov    $0x0,%eax
    2491:	e8 1a ef ff ff       	callq  13b0 <__printf_chk@plt>
    2496:	be 00 00 00 00       	mov    $0x0,%esi
    249b:	bf 00 00 00 00       	mov    $0x0,%edi
    24a0:	e8 a6 fc ff ff       	callq  214b <notify_server>
    24a5:	bf 01 00 00 00       	mov    $0x1,%edi
    24aa:	e8 51 ef ff ff       	callq  1400 <exit@plt>

00000000000024af <launch>:
    24af:	f3 0f 1e fa          	endbr64 
    24b3:	55                   	push   %rbp
    24b4:	48 89 e5             	mov    %rsp,%rbp
    24b7:	48 83 ec 10          	sub    $0x10,%rsp
    24bb:	48 89 fa             	mov    %rdi,%rdx
    24be:	64 48 8b 04 25 28 00 	mov    %fs:0x28,%rax
    24c5:	00 00 
    24c7:	48 89 45 f8          	mov    %rax,-0x8(%rbp)
    24cb:	31 c0                	xor    %eax,%eax
    24cd:	48 8d 47 17          	lea    0x17(%rdi),%rax
    24d1:	48 89 c1             	mov    %rax,%rcx
    24d4:	48 83 e1 f0          	and    $0xfffffffffffffff0,%rcx
    24d8:	48 25 00 f0 ff ff    	and    $0xfffffffffffff000,%rax
    24de:	48 89 e6             	mov    %rsp,%rsi
    24e1:	48 29 c6             	sub    %rax,%rsi
    24e4:	48 89 f0             	mov    %rsi,%rax
    24e7:	48 39 c4             	cmp    %rax,%rsp
    24ea:	74 12                	je     24fe <launch+0x4f>
    24ec:	48 81 ec 00 10 00 00 	sub    $0x1000,%rsp
    24f3:	48 83 8c 24 f8 0f 00 	orq    $0x0,0xff8(%rsp)
    24fa:	00 00 
    24fc:	eb e9                	jmp    24e7 <launch+0x38>
    24fe:	48 89 c8             	mov    %rcx,%rax
    2501:	25 ff 0f 00 00       	and    $0xfff,%eax
    2506:	48 29 c4             	sub    %rax,%rsp
    2509:	48 85 c0             	test   %rax,%rax
    250c:	74 06                	je     2514 <launch+0x65>
    250e:	48 83 4c 04 f8 00    	orq    $0x0,-0x8(%rsp,%rax,1)
    2514:	48 8d 7c 24 0f       	lea    0xf(%rsp),%rdi
    2519:	48 83 e7 f0          	and    $0xfffffffffffffff0,%rdi
    251d:	be f4 00 00 00       	mov    $0xf4,%esi
    2522:	e8 b9 ed ff ff       	callq  12e0 <memset@plt>
    2527:	48 8b 05 12 4b 00 00 	mov    0x4b12(%rip),%rax        # 7040 <stdin@@GLIBC_2.2.5>
    252e:	48 39 05 7b 4e 00 00 	cmp    %rax,0x4e7b(%rip)        # 73b0 <infile>
    2535:	74 3a                	je     2571 <launch+0xc2>
    2537:	c7 05 7f 4e 00 00 00 	movl   $0x0,0x4e7f(%rip)        # 73c0 <vlevel>
    253e:	00 00 00 
    2541:	b8 00 00 00 00       	mov    $0x0,%eax
    2546:	e8 ce fa ff ff       	callq  2019 <test>
    254b:	83 3d 7a 4e 00 00 00 	cmpl   $0x0,0x4e7a(%rip)        # 73cc <is_checker>
    2552:	75 35                	jne    2589 <launch+0xda>
    2554:	48 8d 3d fe 1e 00 00 	lea    0x1efe(%rip),%rdi        # 4459 <_IO_stdin_used+0x459>
    255b:	e8 40 ed ff ff       	callq  12a0 <puts@plt>
    2560:	48 8b 45 f8          	mov    -0x8(%rbp),%rax
    2564:	64 48 33 04 25 28 00 	xor    %fs:0x28,%rax
    256b:	00 00 
    256d:	75 30                	jne    259f <launch+0xf0>
    256f:	c9                   	leaveq 
    2570:	c3                   	retq   
    2571:	48 8d 35 c9 1e 00 00 	lea    0x1ec9(%rip),%rsi        # 4441 <_IO_stdin_used+0x441>
    2578:	bf 01 00 00 00       	mov    $0x1,%edi
    257d:	b8 00 00 00 00       	mov    $0x0,%eax
    2582:	e8 29 ee ff ff       	callq  13b0 <__printf_chk@plt>
    2587:	eb ae                	jmp    2537 <launch+0x88>
    2589:	48 8d 3d be 1e 00 00 	lea    0x1ebe(%rip),%rdi        # 444e <_IO_stdin_used+0x44e>
    2590:	e8 0b ed ff ff       	callq  12a0 <puts@plt>
    2595:	b8 00 00 00 00       	mov    $0x0,%eax
    259a:	e8 18 fb ff ff       	callq  20b7 <check_fail>
    259f:	e8 1c ed ff ff       	callq  12c0 <__stack_chk_fail@plt>

00000000000025a4 <stable_launch>:
    25a4:	f3 0f 1e fa          	endbr64 
    25a8:	53                   	push   %rbx
    25a9:	48 89 3d f8 4d 00 00 	mov    %rdi,0x4df8(%rip)        # 73a8 <global_offset>
    25b0:	41 b9 00 00 00 00    	mov    $0x0,%r9d
    25b6:	41 b8 00 00 00 00    	mov    $0x0,%r8d
    25bc:	b9 32 01 00 00       	mov    $0x132,%ecx
    25c1:	ba 07 00 00 00       	mov    $0x7,%edx
    25c6:	be 00 00 10 00       	mov    $0x100000,%esi
    25cb:	bf 00 60 58 55       	mov    $0x55586000,%edi
    25d0:	e8 fb ec ff ff       	callq  12d0 <mmap@plt>
    25d5:	48 89 c3             	mov    %rax,%rbx
    25d8:	48 3d 00 60 58 55    	cmp    $0x55586000,%rax
    25de:	75 43                	jne    2623 <stable_launch+0x7f>
    25e0:	48 8d 90 f8 ff 0f 00 	lea    0xffff8(%rax),%rdx
    25e7:	48 89 15 02 5a 00 00 	mov    %rdx,0x5a02(%rip)        # 7ff0 <stack_top>
    25ee:	48 89 e0             	mov    %rsp,%rax
    25f1:	48 89 d4             	mov    %rdx,%rsp
    25f4:	48 89 c2             	mov    %rax,%rdx
    25f7:	48 89 15 a2 4d 00 00 	mov    %rdx,0x4da2(%rip)        # 73a0 <global_save_stack>
    25fe:	48 8b 3d a3 4d 00 00 	mov    0x4da3(%rip),%rdi        # 73a8 <global_offset>
    2605:	e8 a5 fe ff ff       	callq  24af <launch>
    260a:	48 8b 05 8f 4d 00 00 	mov    0x4d8f(%rip),%rax        # 73a0 <global_save_stack>
    2611:	48 89 c4             	mov    %rax,%rsp
    2614:	be 00 00 10 00       	mov    $0x100000,%esi
    2619:	48 89 df             	mov    %rbx,%rdi
    261c:	e8 7f ed ff ff       	callq  13a0 <munmap@plt>
    2621:	5b                   	pop    %rbx
    2622:	c3                   	retq   
    2623:	be 00 00 10 00       	mov    $0x100000,%esi
    2628:	48 89 c7             	mov    %rax,%rdi
    262b:	e8 70 ed ff ff       	callq  13a0 <munmap@plt>
    2630:	b9 00 60 58 55       	mov    $0x55586000,%ecx
    2635:	48 8d 15 6c 1f 00 00 	lea    0x1f6c(%rip),%rdx        # 45a8 <_IO_stdin_used+0x5a8>
    263c:	be 01 00 00 00       	mov    $0x1,%esi
    2641:	48 8b 3d 18 4a 00 00 	mov    0x4a18(%rip),%rdi        # 7060 <stderr@@GLIBC_2.2.5>
    2648:	b8 00 00 00 00       	mov    $0x0,%eax
    264d:	e8 ce ed ff ff       	callq  1420 <__fprintf_chk@plt>
    2652:	bf 01 00 00 00       	mov    $0x1,%edi
    2657:	e8 a4 ed ff ff       	callq  1400 <exit@plt>

000000000000265c <rio_readinitb>:
    265c:	89 37                	mov    %esi,(%rdi)
    265e:	c7 47 04 00 00 00 00 	movl   $0x0,0x4(%rdi)
    2665:	48 8d 47 10          	lea    0x10(%rdi),%rax
    2669:	48 89 47 08          	mov    %rax,0x8(%rdi)
    266d:	c3                   	retq   

000000000000266e <sigalrm_handler>:
    266e:	f3 0f 1e fa          	endbr64 
    2672:	50                   	push   %rax
    2673:	58                   	pop    %rax
    2674:	48 83 ec 08          	sub    $0x8,%rsp
    2678:	b9 00 00 00 00       	mov    $0x0,%ecx
    267d:	48 8d 15 5c 1f 00 00 	lea    0x1f5c(%rip),%rdx        # 45e0 <trans_char+0x10>
    2684:	be 01 00 00 00       	mov    $0x1,%esi
    2689:	48 8b 3d d0 49 00 00 	mov    0x49d0(%rip),%rdi        # 7060 <stderr@@GLIBC_2.2.5>
    2690:	b8 00 00 00 00       	mov    $0x0,%eax
    2695:	e8 86 ed ff ff       	callq  1420 <__fprintf_chk@plt>
    269a:	bf 01 00 00 00       	mov    $0x1,%edi
    269f:	e8 5c ed ff ff       	callq  1400 <exit@plt>

00000000000026a4 <rio_writen>:
    26a4:	41 55                	push   %r13
    26a6:	41 54                	push   %r12
    26a8:	55                   	push   %rbp
    26a9:	53                   	push   %rbx
    26aa:	48 83 ec 08          	sub    $0x8,%rsp
    26ae:	41 89 fc             	mov    %edi,%r12d
    26b1:	48 89 f5             	mov    %rsi,%rbp
    26b4:	49 89 d5             	mov    %rdx,%r13
    26b7:	48 89 d3             	mov    %rdx,%rbx
    26ba:	eb 06                	jmp    26c2 <rio_writen+0x1e>
    26bc:	48 29 c3             	sub    %rax,%rbx
    26bf:	48 01 c5             	add    %rax,%rbp
    26c2:	48 85 db             	test   %rbx,%rbx
    26c5:	74 24                	je     26eb <rio_writen+0x47>
    26c7:	48 89 da             	mov    %rbx,%rdx
    26ca:	48 89 ee             	mov    %rbp,%rsi
    26cd:	44 89 e7             	mov    %r12d,%edi
    26d0:	e8 db eb ff ff       	callq  12b0 <write@plt>
    26d5:	48 85 c0             	test   %rax,%rax
    26d8:	7f e2                	jg     26bc <rio_writen+0x18>
    26da:	e8 81 eb ff ff       	callq  1260 <__errno_location@plt>
    26df:	83 38 04             	cmpl   $0x4,(%rax)
    26e2:	75 15                	jne    26f9 <rio_writen+0x55>
    26e4:	b8 00 00 00 00       	mov    $0x0,%eax
    26e9:	eb d1                	jmp    26bc <rio_writen+0x18>
    26eb:	4c 89 e8             	mov    %r13,%rax
    26ee:	48 83 c4 08          	add    $0x8,%rsp
    26f2:	5b                   	pop    %rbx
    26f3:	5d                   	pop    %rbp
    26f4:	41 5c                	pop    %r12
    26f6:	41 5d                	pop    %r13
    26f8:	c3                   	retq   
    26f9:	48 c7 c0 ff ff ff ff 	mov    $0xffffffffffffffff,%rax
    2700:	eb ec                	jmp    26ee <rio_writen+0x4a>

0000000000002702 <rio_read>:
    2702:	41 55                	push   %r13
    2704:	41 54                	push   %r12
    2706:	55                   	push   %rbp
    2707:	53                   	push   %rbx
    2708:	48 83 ec 08          	sub    $0x8,%rsp
    270c:	48 89 fb             	mov    %rdi,%rbx
    270f:	49 89 f5             	mov    %rsi,%r13
    2712:	49 89 d4             	mov    %rdx,%r12
    2715:	eb 17                	jmp    272e <rio_read+0x2c>
    2717:	e8 44 eb ff ff       	callq  1260 <__errno_location@plt>
    271c:	83 38 04             	cmpl   $0x4,(%rax)
    271f:	74 0d                	je     272e <rio_read+0x2c>
    2721:	48 c7 c0 ff ff ff ff 	mov    $0xffffffffffffffff,%rax
    2728:	eb 54                	jmp    277e <rio_read+0x7c>
    272a:	48 89 6b 08          	mov    %rbp,0x8(%rbx)
    272e:	8b 6b 04             	mov    0x4(%rbx),%ebp
    2731:	85 ed                	test   %ebp,%ebp
    2733:	7f 23                	jg     2758 <rio_read+0x56>
    2735:	48 8d 6b 10          	lea    0x10(%rbx),%rbp
    2739:	8b 3b                	mov    (%rbx),%edi
    273b:	ba 00 20 00 00       	mov    $0x2000,%edx
    2740:	48 89 ee             	mov    %rbp,%rsi
    2743:	e8 c8 eb ff ff       	callq  1310 <read@plt>
    2748:	89 43 04             	mov    %eax,0x4(%rbx)
    274b:	85 c0                	test   %eax,%eax
    274d:	78 c8                	js     2717 <rio_read+0x15>
    274f:	75 d9                	jne    272a <rio_read+0x28>
    2751:	b8 00 00 00 00       	mov    $0x0,%eax
    2756:	eb 26                	jmp    277e <rio_read+0x7c>
    2758:	89 e8                	mov    %ebp,%eax
    275a:	4c 39 e0             	cmp    %r12,%rax
    275d:	72 03                	jb     2762 <rio_read+0x60>
    275f:	44 89 e5             	mov    %r12d,%ebp
    2762:	4c 63 e5             	movslq %ebp,%r12
    2765:	48 8b 73 08          	mov    0x8(%rbx),%rsi
    2769:	4c 89 e2             	mov    %r12,%rdx
    276c:	4c 89 ef             	mov    %r13,%rdi
    276f:	e8 ec eb ff ff       	callq  1360 <memcpy@plt>
    2774:	4c 01 63 08          	add    %r12,0x8(%rbx)
    2778:	29 6b 04             	sub    %ebp,0x4(%rbx)
    277b:	4c 89 e0             	mov    %r12,%rax
    277e:	48 83 c4 08          	add    $0x8,%rsp
    2782:	5b                   	pop    %rbx
    2783:	5d                   	pop    %rbp
    2784:	41 5c                	pop    %r12
    2786:	41 5d                	pop    %r13
    2788:	c3                   	retq   

0000000000002789 <rio_readlineb>:
    2789:	41 55                	push   %r13
    278b:	41 54                	push   %r12
    278d:	55                   	push   %rbp
    278e:	53                   	push   %rbx
    278f:	48 83 ec 18          	sub    $0x18,%rsp
    2793:	49 89 fd             	mov    %rdi,%r13
    2796:	48 89 f5             	mov    %rsi,%rbp
    2799:	49 89 d4             	mov    %rdx,%r12
    279c:	64 48 8b 04 25 28 00 	mov    %fs:0x28,%rax
    27a3:	00 00 
    27a5:	48 89 44 24 08       	mov    %rax,0x8(%rsp)
    27aa:	31 c0                	xor    %eax,%eax
    27ac:	bb 01 00 00 00       	mov    $0x1,%ebx
    27b1:	eb 18                	jmp    27cb <rio_readlineb+0x42>
    27b3:	85 c0                	test   %eax,%eax
    27b5:	75 65                	jne    281c <rio_readlineb+0x93>
    27b7:	48 83 fb 01          	cmp    $0x1,%rbx
    27bb:	75 3d                	jne    27fa <rio_readlineb+0x71>
    27bd:	b8 00 00 00 00       	mov    $0x0,%eax
    27c2:	eb 3d                	jmp    2801 <rio_readlineb+0x78>
    27c4:	48 83 c3 01          	add    $0x1,%rbx
    27c8:	48 89 d5             	mov    %rdx,%rbp
    27cb:	4c 39 e3             	cmp    %r12,%rbx
    27ce:	73 2a                	jae    27fa <rio_readlineb+0x71>
    27d0:	48 8d 74 24 07       	lea    0x7(%rsp),%rsi
    27d5:	ba 01 00 00 00       	mov    $0x1,%edx
    27da:	4c 89 ef             	mov    %r13,%rdi
    27dd:	e8 20 ff ff ff       	callq  2702 <rio_read>
    27e2:	83 f8 01             	cmp    $0x1,%eax
    27e5:	75 cc                	jne    27b3 <rio_readlineb+0x2a>
    27e7:	48 8d 55 01          	lea    0x1(%rbp),%rdx
    27eb:	0f b6 44 24 07       	movzbl 0x7(%rsp),%eax
    27f0:	88 45 00             	mov    %al,0x0(%rbp)
    27f3:	3c 0a                	cmp    $0xa,%al
    27f5:	75 cd                	jne    27c4 <rio_readlineb+0x3b>
    27f7:	48 89 d5             	mov    %rdx,%rbp
    27fa:	c6 45 00 00          	movb   $0x0,0x0(%rbp)
    27fe:	48 89 d8             	mov    %rbx,%rax
    2801:	48 8b 4c 24 08       	mov    0x8(%rsp),%rcx
    2806:	64 48 33 0c 25 28 00 	xor    %fs:0x28,%rcx
    280d:	00 00 
    280f:	75 14                	jne    2825 <rio_readlineb+0x9c>
    2811:	48 83 c4 18          	add    $0x18,%rsp
    2815:	5b                   	pop    %rbx
    2816:	5d                   	pop    %rbp
    2817:	41 5c                	pop    %r12
    2819:	41 5d                	pop    %r13
    281b:	c3                   	retq   
    281c:	48 c7 c0 ff ff ff ff 	mov    $0xffffffffffffffff,%rax
    2823:	eb dc                	jmp    2801 <rio_readlineb+0x78>
    2825:	e8 96 ea ff ff       	callq  12c0 <__stack_chk_fail@plt>

000000000000282a <urlencode>:
    282a:	41 54                	push   %r12
    282c:	55                   	push   %rbp
    282d:	53                   	push   %rbx
    282e:	48 83 ec 10          	sub    $0x10,%rsp
    2832:	48 89 fb             	mov    %rdi,%rbx
    2835:	48 89 f5             	mov    %rsi,%rbp
    2838:	64 48 8b 04 25 28 00 	mov    %fs:0x28,%rax
    283f:	00 00 
    2841:	48 89 44 24 08       	mov    %rax,0x8(%rsp)
    2846:	31 c0                	xor    %eax,%eax
    2848:	48 c7 c1 ff ff ff ff 	mov    $0xffffffffffffffff,%rcx
    284f:	f2 ae                	repnz scas %es:(%rdi),%al
    2851:	48 f7 d1             	not    %rcx
    2854:	8d 41 ff             	lea    -0x1(%rcx),%eax
    2857:	eb 0f                	jmp    2868 <urlencode+0x3e>
    2859:	44 88 45 00          	mov    %r8b,0x0(%rbp)
    285d:	48 8d 6d 01          	lea    0x1(%rbp),%rbp
    2861:	48 83 c3 01          	add    $0x1,%rbx
    2865:	44 89 e0             	mov    %r12d,%eax
    2868:	44 8d 60 ff          	lea    -0x1(%rax),%r12d
    286c:	85 c0                	test   %eax,%eax
    286e:	0f 84 a8 00 00 00    	je     291c <urlencode+0xf2>
    2874:	44 0f b6 03          	movzbl (%rbx),%r8d
    2878:	41 80 f8 2a          	cmp    $0x2a,%r8b
    287c:	0f 94 c2             	sete   %dl
    287f:	41 80 f8 2d          	cmp    $0x2d,%r8b
    2883:	0f 94 c0             	sete   %al
    2886:	08 c2                	or     %al,%dl
    2888:	75 cf                	jne    2859 <urlencode+0x2f>
    288a:	41 80 f8 2e          	cmp    $0x2e,%r8b
    288e:	74 c9                	je     2859 <urlencode+0x2f>
    2890:	41 80 f8 5f          	cmp    $0x5f,%r8b
    2894:	74 c3                	je     2859 <urlencode+0x2f>
    2896:	41 8d 40 d0          	lea    -0x30(%r8),%eax
    289a:	3c 09                	cmp    $0x9,%al
    289c:	76 bb                	jbe    2859 <urlencode+0x2f>
    289e:	41 8d 40 bf          	lea    -0x41(%r8),%eax
    28a2:	3c 19                	cmp    $0x19,%al
    28a4:	76 b3                	jbe    2859 <urlencode+0x2f>
    28a6:	41 8d 40 9f          	lea    -0x61(%r8),%eax
    28aa:	3c 19                	cmp    $0x19,%al
    28ac:	76 ab                	jbe    2859 <urlencode+0x2f>
    28ae:	41 80 f8 20          	cmp    $0x20,%r8b
    28b2:	74 56                	je     290a <urlencode+0xe0>
    28b4:	41 8d 40 e0          	lea    -0x20(%r8),%eax
    28b8:	3c 5f                	cmp    $0x5f,%al
    28ba:	0f 96 c2             	setbe  %dl
    28bd:	41 80 f8 09          	cmp    $0x9,%r8b
    28c1:	0f 94 c0             	sete   %al
    28c4:	08 c2                	or     %al,%dl
    28c6:	74 4f                	je     2917 <urlencode+0xed>
    28c8:	48 89 e7             	mov    %rsp,%rdi
    28cb:	45 0f b6 c0          	movzbl %r8b,%r8d
    28cf:	48 8d 0d 9f 1d 00 00 	lea    0x1d9f(%rip),%rcx        # 4675 <trans_char+0xa5>
    28d6:	ba 08 00 00 00       	mov    $0x8,%edx
    28db:	be 01 00 00 00       	mov    $0x1,%esi
    28e0:	b8 00 00 00 00       	mov    $0x0,%eax
    28e5:	e8 56 eb ff ff       	callq  1440 <__sprintf_chk@plt>
    28ea:	0f b6 04 24          	movzbl (%rsp),%eax
    28ee:	88 45 00             	mov    %al,0x0(%rbp)
    28f1:	0f b6 44 24 01       	movzbl 0x1(%rsp),%eax
    28f6:	88 45 01             	mov    %al,0x1(%rbp)
    28f9:	0f b6 44 24 02       	movzbl 0x2(%rsp),%eax
    28fe:	88 45 02             	mov    %al,0x2(%rbp)
    2901:	48 8d 6d 03          	lea    0x3(%rbp),%rbp
    2905:	e9 57 ff ff ff       	jmpq   2861 <urlencode+0x37>
    290a:	c6 45 00 2b          	movb   $0x2b,0x0(%rbp)
    290e:	48 8d 6d 01          	lea    0x1(%rbp),%rbp
    2912:	e9 4a ff ff ff       	jmpq   2861 <urlencode+0x37>
    2917:	b8 ff ff ff ff       	mov    $0xffffffff,%eax
    291c:	48 8b 74 24 08       	mov    0x8(%rsp),%rsi
    2921:	64 48 33 34 25 28 00 	xor    %fs:0x28,%rsi
    2928:	00 00 
    292a:	75 09                	jne    2935 <urlencode+0x10b>
    292c:	48 83 c4 10          	add    $0x10,%rsp
    2930:	5b                   	pop    %rbx
    2931:	5d                   	pop    %rbp
    2932:	41 5c                	pop    %r12
    2934:	c3                   	retq   
    2935:	e8 86 e9 ff ff       	callq  12c0 <__stack_chk_fail@plt>

000000000000293a <submitr>:
    293a:	f3 0f 1e fa          	endbr64 
    293e:	41 57                	push   %r15
    2940:	41 56                	push   %r14
    2942:	41 55                	push   %r13
    2944:	41 54                	push   %r12
    2946:	55                   	push   %rbp
    2947:	53                   	push   %rbx
    2948:	4c 8d 9c 24 00 60 ff 	lea    -0xa000(%rsp),%r11
    294f:	ff 
    2950:	48 81 ec 00 10 00 00 	sub    $0x1000,%rsp
    2957:	48 83 0c 24 00       	orq    $0x0,(%rsp)
    295c:	4c 39 dc             	cmp    %r11,%rsp
    295f:	75 ef                	jne    2950 <submitr+0x16>
    2961:	48 83 ec 68          	sub    $0x68,%rsp
    2965:	49 89 fc             	mov    %rdi,%r12
    2968:	89 74 24 14          	mov    %esi,0x14(%rsp)
    296c:	49 89 d6             	mov    %rdx,%r14
    296f:	48 89 4c 24 08       	mov    %rcx,0x8(%rsp)
    2974:	4c 89 44 24 18       	mov    %r8,0x18(%rsp)
    2979:	4d 89 cd             	mov    %r9,%r13
    297c:	48 8b ac 24 a0 a0 00 	mov    0xa0a0(%rsp),%rbp
    2983:	00 
    2984:	64 48 8b 04 25 28 00 	mov    %fs:0x28,%rax
    298b:	00 00 
    298d:	48 89 84 24 58 a0 00 	mov    %rax,0xa058(%rsp)
    2994:	00 
    2995:	31 c0                	xor    %eax,%eax
    2997:	c7 44 24 2c 00 00 00 	movl   $0x0,0x2c(%rsp)
    299e:	00 
    299f:	ba 00 00 00 00       	mov    $0x0,%edx
    29a4:	be 01 00 00 00       	mov    $0x1,%esi
    29a9:	bf 02 00 00 00       	mov    $0x2,%edi
    29ae:	e8 9d ea ff ff       	callq  1450 <socket@plt>
    29b3:	85 c0                	test   %eax,%eax
    29b5:	0f 88 a0 02 00 00    	js     2c5b <submitr+0x321>
    29bb:	89 c3                	mov    %eax,%ebx
    29bd:	4c 89 e7             	mov    %r12,%rdi
    29c0:	e8 6b e9 ff ff       	callq  1330 <gethostbyname@plt>
    29c5:	48 85 c0             	test   %rax,%rax
    29c8:	0f 84 d9 02 00 00    	je     2ca7 <submitr+0x36d>
    29ce:	4c 8d 7c 24 30       	lea    0x30(%rsp),%r15
    29d3:	48 c7 44 24 30 00 00 	movq   $0x0,0x30(%rsp)
    29da:	00 00 
    29dc:	48 c7 44 24 38 00 00 	movq   $0x0,0x38(%rsp)
    29e3:	00 00 
    29e5:	66 c7 44 24 30 02 00 	movw   $0x2,0x30(%rsp)
    29ec:	48 63 50 14          	movslq 0x14(%rax),%rdx
    29f0:	48 8b 40 18          	mov    0x18(%rax),%rax
    29f4:	48 8b 30             	mov    (%rax),%rsi
    29f7:	48 8d 7c 24 34       	lea    0x34(%rsp),%rdi
    29fc:	b9 0c 00 00 00       	mov    $0xc,%ecx
    2a01:	e8 3a e9 ff ff       	callq  1340 <__memmove_chk@plt>
    2a06:	0f b7 74 24 14       	movzwl 0x14(%rsp),%esi
    2a0b:	66 c1 c6 08          	rol    $0x8,%si
    2a0f:	66 89 74 24 32       	mov    %si,0x32(%rsp)
    2a14:	ba 10 00 00 00       	mov    $0x10,%edx
    2a19:	4c 89 fe             	mov    %r15,%rsi
    2a1c:	89 df                	mov    %ebx,%edi
    2a1e:	e8 ed e9 ff ff       	callq  1410 <connect@plt>
    2a23:	85 c0                	test   %eax,%eax
    2a25:	0f 88 e4 02 00 00    	js     2d0f <submitr+0x3d5>
    2a2b:	49 c7 c0 ff ff ff ff 	mov    $0xffffffffffffffff,%r8
    2a32:	b8 00 00 00 00       	mov    $0x0,%eax
    2a37:	4c 89 c1             	mov    %r8,%rcx
    2a3a:	4c 89 ef             	mov    %r13,%rdi
    2a3d:	f2 ae                	repnz scas %es:(%rdi),%al
    2a3f:	48 89 ca             	mov    %rcx,%rdx
    2a42:	48 f7 d2             	not    %rdx
    2a45:	4c 89 c1             	mov    %r8,%rcx
    2a48:	4c 89 f7             	mov    %r14,%rdi
    2a4b:	f2 ae                	repnz scas %es:(%rdi),%al
    2a4d:	48 f7 d1             	not    %rcx
    2a50:	48 89 ce             	mov    %rcx,%rsi
    2a53:	4c 89 c1             	mov    %r8,%rcx
    2a56:	48 8b 7c 24 08       	mov    0x8(%rsp),%rdi
    2a5b:	f2 ae                	repnz scas %es:(%rdi),%al
    2a5d:	48 f7 d1             	not    %rcx
    2a60:	48 8d 74 0e fe       	lea    -0x2(%rsi,%rcx,1),%rsi
    2a65:	4c 89 c1             	mov    %r8,%rcx
    2a68:	48 8b 7c 24 18       	mov    0x18(%rsp),%rdi
    2a6d:	f2 ae                	repnz scas %es:(%rdi),%al
    2a6f:	48 89 c8             	mov    %rcx,%rax
    2a72:	48 f7 d0             	not    %rax
    2a75:	48 8d 4c 06 ff       	lea    -0x1(%rsi,%rax,1),%rcx
    2a7a:	48 8d 44 52 fd       	lea    -0x3(%rdx,%rdx,2),%rax
    2a7f:	48 8d 84 01 80 00 00 	lea    0x80(%rcx,%rax,1),%rax
    2a86:	00 
    2a87:	48 3d 00 20 00 00    	cmp    $0x2000,%rax
    2a8d:	0f 87 d6 02 00 00    	ja     2d69 <submitr+0x42f>
    2a93:	48 8d b4 24 50 40 00 	lea    0x4050(%rsp),%rsi
    2a9a:	00 
    2a9b:	b9 00 04 00 00       	mov    $0x400,%ecx
    2aa0:	b8 00 00 00 00       	mov    $0x0,%eax
    2aa5:	48 89 f7             	mov    %rsi,%rdi
    2aa8:	f3 48 ab             	rep stos %rax,%es:(%rdi)
    2aab:	4c 89 ef             	mov    %r13,%rdi
    2aae:	e8 77 fd ff ff       	callq  282a <urlencode>
    2ab3:	85 c0                	test   %eax,%eax
    2ab5:	0f 88 21 03 00 00    	js     2ddc <submitr+0x4a2>
    2abb:	4c 8d bc 24 50 20 00 	lea    0x2050(%rsp),%r15
    2ac2:	00 
    2ac3:	41 54                	push   %r12
    2ac5:	48 8d 84 24 58 40 00 	lea    0x4058(%rsp),%rax
    2acc:	00 
    2acd:	50                   	push   %rax
    2ace:	4d 89 f1             	mov    %r14,%r9
    2ad1:	4c 8b 44 24 18       	mov    0x18(%rsp),%r8
    2ad6:	48 8d 0d 2b 1b 00 00 	lea    0x1b2b(%rip),%rcx        # 4608 <trans_char+0x38>
    2add:	ba 00 20 00 00       	mov    $0x2000,%edx
    2ae2:	be 01 00 00 00       	mov    $0x1,%esi
    2ae7:	4c 89 ff             	mov    %r15,%rdi
    2aea:	b8 00 00 00 00       	mov    $0x0,%eax
    2aef:	e8 4c e9 ff ff       	callq  1440 <__sprintf_chk@plt>
    2af4:	48 c7 c1 ff ff ff ff 	mov    $0xffffffffffffffff,%rcx
    2afb:	b8 00 00 00 00       	mov    $0x0,%eax
    2b00:	4c 89 ff             	mov    %r15,%rdi
    2b03:	f2 ae                	repnz scas %es:(%rdi),%al
    2b05:	48 f7 d1             	not    %rcx
    2b08:	48 8d 51 ff          	lea    -0x1(%rcx),%rdx
    2b0c:	4c 89 fe             	mov    %r15,%rsi
    2b0f:	89 df                	mov    %ebx,%edi
    2b11:	e8 8e fb ff ff       	callq  26a4 <rio_writen>
    2b16:	48 83 c4 10          	add    $0x10,%rsp
    2b1a:	48 85 c0             	test   %rax,%rax
    2b1d:	0f 88 44 03 00 00    	js     2e67 <submitr+0x52d>
    2b23:	4c 8d 64 24 40       	lea    0x40(%rsp),%r12
    2b28:	89 de                	mov    %ebx,%esi
    2b2a:	4c 89 e7             	mov    %r12,%rdi
    2b2d:	e8 2a fb ff ff       	callq  265c <rio_readinitb>
    2b32:	48 8d b4 24 50 20 00 	lea    0x2050(%rsp),%rsi
    2b39:	00 
    2b3a:	ba 00 20 00 00       	mov    $0x2000,%edx
    2b3f:	4c 89 e7             	mov    %r12,%rdi
    2b42:	e8 42 fc ff ff       	callq  2789 <rio_readlineb>
    2b47:	48 85 c0             	test   %rax,%rax
    2b4a:	0f 8e 86 03 00 00    	jle    2ed6 <submitr+0x59c>
    2b50:	48 8d 4c 24 2c       	lea    0x2c(%rsp),%rcx
    2b55:	48 8d 94 24 50 60 00 	lea    0x6050(%rsp),%rdx
    2b5c:	00 
    2b5d:	48 8d bc 24 50 20 00 	lea    0x2050(%rsp),%rdi
    2b64:	00 
    2b65:	4c 8d 84 24 50 80 00 	lea    0x8050(%rsp),%r8
    2b6c:	00 
    2b6d:	48 8d 35 08 1b 00 00 	lea    0x1b08(%rip),%rsi        # 467c <trans_char+0xac>
    2b74:	b8 00 00 00 00       	mov    $0x0,%eax
    2b79:	e8 12 e8 ff ff       	callq  1390 <__isoc99_sscanf@plt>
    2b7e:	48 8d b4 24 50 20 00 	lea    0x2050(%rsp),%rsi
    2b85:	00 
    2b86:	b9 03 00 00 00       	mov    $0x3,%ecx
    2b8b:	48 8d 3d 01 1b 00 00 	lea    0x1b01(%rip),%rdi        # 4693 <trans_char+0xc3>
    2b92:	f3 a6                	repz cmpsb %es:(%rdi),%ds:(%rsi)
    2b94:	0f 97 c0             	seta   %al
    2b97:	1c 00                	sbb    $0x0,%al
    2b99:	84 c0                	test   %al,%al
    2b9b:	0f 84 b3 03 00 00    	je     2f54 <submitr+0x61a>
    2ba1:	48 8d b4 24 50 20 00 	lea    0x2050(%rsp),%rsi
    2ba8:	00 
    2ba9:	48 8d 7c 24 40       	lea    0x40(%rsp),%rdi
    2bae:	ba 00 20 00 00       	mov    $0x2000,%edx
    2bb3:	e8 d1 fb ff ff       	callq  2789 <rio_readlineb>
    2bb8:	48 85 c0             	test   %rax,%rax
    2bbb:	7f c1                	jg     2b7e <submitr+0x244>
    2bbd:	48 b8 45 72 72 6f 72 	movabs $0x43203a726f727245,%rax
    2bc4:	3a 20 43 
    2bc7:	48 ba 6c 69 65 6e 74 	movabs $0x6e7520746e65696c,%rdx
    2bce:	20 75 6e 
    2bd1:	48 89 45 00          	mov    %rax,0x0(%rbp)
    2bd5:	48 89 55 08          	mov    %rdx,0x8(%rbp)
    2bd9:	48 b8 61 62 6c 65 20 	movabs $0x206f7420656c6261,%rax
    2be0:	74 6f 20 
    2be3:	48 ba 72 65 61 64 20 	movabs $0x6165682064616572,%rdx
    2bea:	68 65 61 
    2bed:	48 89 45 10          	mov    %rax,0x10(%rbp)
    2bf1:	48 89 55 18          	mov    %rdx,0x18(%rbp)
    2bf5:	48 b8 64 65 72 73 20 	movabs $0x6f72662073726564,%rax
    2bfc:	66 72 6f 
    2bff:	48 ba 6d 20 74 68 65 	movabs $0x657220656874206d,%rdx
    2c06:	20 72 65 
    2c09:	48 89 45 20          	mov    %rax,0x20(%rbp)
    2c0d:	48 89 55 28          	mov    %rdx,0x28(%rbp)
    2c11:	48 b8 73 75 6c 74 20 	movabs $0x72657320746c7573,%rax
    2c18:	73 65 72 
    2c1b:	48 89 45 30          	mov    %rax,0x30(%rbp)
    2c1f:	c7 45 38 76 65 72 00 	movl   $0x726576,0x38(%rbp)
    2c26:	89 df                	mov    %ebx,%edi
    2c28:	e8 d3 e6 ff ff       	callq  1300 <close@plt>
    2c2d:	b8 ff ff ff ff       	mov    $0xffffffff,%eax
    2c32:	48 8b 9c 24 58 a0 00 	mov    0xa058(%rsp),%rbx
    2c39:	00 
    2c3a:	64 48 33 1c 25 28 00 	xor    %fs:0x28,%rbx
    2c41:	00 00 
    2c43:	0f 85 7e 04 00 00    	jne    30c7 <submitr+0x78d>
    2c49:	48 81 c4 68 a0 00 00 	add    $0xa068,%rsp
    2c50:	5b                   	pop    %rbx
    2c51:	5d                   	pop    %rbp
    2c52:	41 5c                	pop    %r12
    2c54:	41 5d                	pop    %r13
    2c56:	41 5e                	pop    %r14
    2c58:	41 5f                	pop    %r15
    2c5a:	c3                   	retq   
    2c5b:	48 b8 45 72 72 6f 72 	movabs $0x43203a726f727245,%rax
    2c62:	3a 20 43 
    2c65:	48 ba 6c 69 65 6e 74 	movabs $0x6e7520746e65696c,%rdx
    2c6c:	20 75 6e 
    2c6f:	48 89 45 00          	mov    %rax,0x0(%rbp)
    2c73:	48 89 55 08          	mov    %rdx,0x8(%rbp)
    2c77:	48 b8 61 62 6c 65 20 	movabs $0x206f7420656c6261,%rax
    2c7e:	74 6f 20 
    2c81:	48 ba 63 72 65 61 74 	movabs $0x7320657461657263,%rdx
    2c88:	65 20 73 
    2c8b:	48 89 45 10          	mov    %rax,0x10(%rbp)
    2c8f:	48 89 55 18          	mov    %rdx,0x18(%rbp)
    2c93:	c7 45 20 6f 63 6b 65 	movl   $0x656b636f,0x20(%rbp)
    2c9a:	66 c7 45 24 74 00    	movw   $0x74,0x24(%rbp)
    2ca0:	b8 ff ff ff ff       	mov    $0xffffffff,%eax
    2ca5:	eb 8b                	jmp    2c32 <submitr+0x2f8>
    2ca7:	48 b8 45 72 72 6f 72 	movabs $0x44203a726f727245,%rax
    2cae:	3a 20 44 
    2cb1:	48 ba 4e 53 20 69 73 	movabs $0x6e7520736920534e,%rdx
    2cb8:	20 75 6e 
    2cbb:	48 89 45 00          	mov    %rax,0x0(%rbp)
    2cbf:	48 89 55 08          	mov    %rdx,0x8(%rbp)
    2cc3:	48 b8 61 62 6c 65 20 	movabs $0x206f7420656c6261,%rax
    2cca:	74 6f 20 
    2ccd:	48 ba 72 65 73 6f 6c 	movabs $0x2065766c6f736572,%rdx
    2cd4:	76 65 20 
    2cd7:	48 89 45 10          	mov    %rax,0x10(%rbp)
    2cdb:	48 89 55 18          	mov    %rdx,0x18(%rbp)
    2cdf:	48 b8 73 65 72 76 65 	movabs $0x6120726576726573,%rax
    2ce6:	72 20 61 
    2ce9:	48 89 45 20          	mov    %rax,0x20(%rbp)
    2ced:	c7 45 28 64 64 72 65 	movl   $0x65726464,0x28(%rbp)
    2cf4:	66 c7 45 2c 73 73    	movw   $0x7373,0x2c(%rbp)
    2cfa:	c6 45 2e 00          	movb   $0x0,0x2e(%rbp)
    2cfe:	89 df                	mov    %ebx,%edi
    2d00:	e8 fb e5 ff ff       	callq  1300 <close@plt>
    2d05:	b8 ff ff ff ff       	mov    $0xffffffff,%eax
    2d0a:	e9 23 ff ff ff       	jmpq   2c32 <submitr+0x2f8>
    2d0f:	48 b8 45 72 72 6f 72 	movabs $0x55203a726f727245,%rax
    2d16:	3a 20 55 
    2d19:	48 ba 6e 61 62 6c 65 	movabs $0x6f7420656c62616e,%rdx
    2d20:	20 74 6f 
    2d23:	48 89 45 00          	mov    %rax,0x0(%rbp)
    2d27:	48 89 55 08          	mov    %rdx,0x8(%rbp)
    2d2b:	48 b8 20 63 6f 6e 6e 	movabs $0x7463656e6e6f6320,%rax
    2d32:	65 63 74 
    2d35:	48 ba 20 74 6f 20 74 	movabs $0x20656874206f7420,%rdx
    2d3c:	68 65 20 
    2d3f:	48 89 45 10          	mov    %rax,0x10(%rbp)
    2d43:	48 89 55 18          	mov    %rdx,0x18(%rbp)
    2d47:	c7 45 20 73 65 72 76 	movl   $0x76726573,0x20(%rbp)
    2d4e:	66 c7 45 24 65 72    	movw   $0x7265,0x24(%rbp)
    2d54:	c6 45 26 00          	movb   $0x0,0x26(%rbp)
    2d58:	89 df                	mov    %ebx,%edi
    2d5a:	e8 a1 e5 ff ff       	callq  1300 <close@plt>
    2d5f:	b8 ff ff ff ff       	mov    $0xffffffff,%eax
    2d64:	e9 c9 fe ff ff       	jmpq   2c32 <submitr+0x2f8>
    2d69:	48 b8 45 72 72 6f 72 	movabs $0x52203a726f727245,%rax
    2d70:	3a 20 52 
    2d73:	48 ba 65 73 75 6c 74 	movabs $0x747320746c757365,%rdx
    2d7a:	20 73 74 
    2d7d:	48 89 45 00          	mov    %rax,0x0(%rbp)
    2d81:	48 89 55 08          	mov    %rdx,0x8(%rbp)
    2d85:	48 b8 72 69 6e 67 20 	movabs $0x6f6f7420676e6972,%rax
    2d8c:	74 6f 6f 
    2d8f:	48 ba 20 6c 61 72 67 	movabs $0x202e656772616c20,%rdx
    2d96:	65 2e 20 
    2d99:	48 89 45 10          	mov    %rax,0x10(%rbp)
    2d9d:	48 89 55 18          	mov    %rdx,0x18(%rbp)
    2da1:	48 b8 49 6e 63 72 65 	movabs $0x6573616572636e49,%rax
    2da8:	61 73 65 
    2dab:	48 ba 20 53 55 42 4d 	movabs $0x5254494d42555320,%rdx
    2db2:	49 54 52 
    2db5:	48 89 45 20          	mov    %rax,0x20(%rbp)
    2db9:	48 89 55 28          	mov    %rdx,0x28(%rbp)
    2dbd:	48 b8 5f 4d 41 58 42 	movabs $0x46554258414d5f,%rax
    2dc4:	55 46 00 
    2dc7:	48 89 45 30          	mov    %rax,0x30(%rbp)
    2dcb:	89 df                	mov    %ebx,%edi
    2dcd:	e8 2e e5 ff ff       	callq  1300 <close@plt>
    2dd2:	b8 ff ff ff ff       	mov    $0xffffffff,%eax
    2dd7:	e9 56 fe ff ff       	jmpq   2c32 <submitr+0x2f8>
    2ddc:	48 b8 45 72 72 6f 72 	movabs $0x52203a726f727245,%rax
    2de3:	3a 20 52 
    2de6:	48 ba 65 73 75 6c 74 	movabs $0x747320746c757365,%rdx
    2ded:	20 73 74 
    2df0:	48 89 45 00          	mov    %rax,0x0(%rbp)
    2df4:	48 89 55 08          	mov    %rdx,0x8(%rbp)
    2df8:	48 b8 72 69 6e 67 20 	movabs $0x6e6f6320676e6972,%rax
    2dff:	63 6f 6e 
    2e02:	48 ba 74 61 69 6e 73 	movabs $0x6e6120736e696174,%rdx
    2e09:	20 61 6e 
    2e0c:	48 89 45 10          	mov    %rax,0x10(%rbp)
    2e10:	48 89 55 18          	mov    %rdx,0x18(%rbp)
    2e14:	48 b8 20 69 6c 6c 65 	movabs $0x6c6167656c6c6920,%rax
    2e1b:	67 61 6c 
    2e1e:	48 ba 20 6f 72 20 75 	movabs $0x72706e7520726f20,%rdx
    2e25:	6e 70 72 
    2e28:	48 89 45 20          	mov    %rax,0x20(%rbp)
    2e2c:	48 89 55 28          	mov    %rdx,0x28(%rbp)
    2e30:	48 b8 69 6e 74 61 62 	movabs $0x20656c6261746e69,%rax
    2e37:	6c 65 20 
    2e3a:	48 ba 63 68 61 72 61 	movabs $0x6574636172616863,%rdx
    2e41:	63 74 65 
    2e44:	48 89 45 30          	mov    %rax,0x30(%rbp)
    2e48:	48 89 55 38          	mov    %rdx,0x38(%rbp)
    2e4c:	66 c7 45 40 72 2e    	movw   $0x2e72,0x40(%rbp)
    2e52:	c6 45 42 00          	movb   $0x0,0x42(%rbp)
    2e56:	89 df                	mov    %ebx,%edi
    2e58:	e8 a3 e4 ff ff       	callq  1300 <close@plt>
    2e5d:	b8 ff ff ff ff       	mov    $0xffffffff,%eax
    2e62:	e9 cb fd ff ff       	jmpq   2c32 <submitr+0x2f8>
    2e67:	48 b8 45 72 72 6f 72 	movabs $0x43203a726f727245,%rax
    2e6e:	3a 20 43 
    2e71:	48 ba 6c 69 65 6e 74 	movabs $0x6e7520746e65696c,%rdx
    2e78:	20 75 6e 
    2e7b:	48 89 45 00          	mov    %rax,0x0(%rbp)
    2e7f:	48 89 55 08          	mov    %rdx,0x8(%rbp)
    2e83:	48 b8 61 62 6c 65 20 	movabs $0x206f7420656c6261,%rax
    2e8a:	74 6f 20 
    2e8d:	48 ba 77 72 69 74 65 	movabs $0x6f74206574697277,%rdx
    2e94:	20 74 6f 
    2e97:	48 89 45 10          	mov    %rax,0x10(%rbp)
    2e9b:	48 89 55 18          	mov    %rdx,0x18(%rbp)
    2e9f:	48 b8 20 74 68 65 20 	movabs $0x7365722065687420,%rax
    2ea6:	72 65 73 
    2ea9:	48 ba 75 6c 74 20 73 	movabs $0x7672657320746c75,%rdx
    2eb0:	65 72 76 
    2eb3:	48 89 45 20          	mov    %rax,0x20(%rbp)
    2eb7:	48 89 55 28          	mov    %rdx,0x28(%rbp)
    2ebb:	66 c7 45 30 65 72    	movw   $0x7265,0x30(%rbp)
    2ec1:	c6 45 32 00          	movb   $0x0,0x32(%rbp)
    2ec5:	89 df                	mov    %ebx,%edi
    2ec7:	e8 34 e4 ff ff       	callq  1300 <close@plt>
    2ecc:	b8 ff ff ff ff       	mov    $0xffffffff,%eax
    2ed1:	e9 5c fd ff ff       	jmpq   2c32 <submitr+0x2f8>
    2ed6:	48 b8 45 72 72 6f 72 	movabs $0x43203a726f727245,%rax
    2edd:	3a 20 43 
    2ee0:	48 ba 6c 69 65 6e 74 	movabs $0x6e7520746e65696c,%rdx
    2ee7:	20 75 6e 
    2eea:	48 89 45 00          	mov    %rax,0x0(%rbp)
    2eee:	48 89 55 08          	mov    %rdx,0x8(%rbp)
    2ef2:	48 b8 61 62 6c 65 20 	movabs $0x206f7420656c6261,%rax
    2ef9:	74 6f 20 
    2efc:	48 ba 72 65 61 64 20 	movabs $0x7269662064616572,%rdx
    2f03:	66 69 72 
    2f06:	48 89 45 10          	mov    %rax,0x10(%rbp)
    2f0a:	48 89 55 18          	mov    %rdx,0x18(%rbp)
    2f0e:	48 b8 73 74 20 68 65 	movabs $0x6564616568207473,%rax
    2f15:	61 64 65 
    2f18:	48 ba 72 20 66 72 6f 	movabs $0x72206d6f72662072,%rdx
    2f1f:	6d 20 72 
    2f22:	48 89 45 20          	mov    %rax,0x20(%rbp)
    2f26:	48 89 55 28          	mov    %rdx,0x28(%rbp)
    2f2a:	48 b8 65 73 75 6c 74 	movabs $0x657320746c757365,%rax
    2f31:	20 73 65 
    2f34:	48 89 45 30          	mov    %rax,0x30(%rbp)
    2f38:	c7 45 38 72 76 65 72 	movl   $0x72657672,0x38(%rbp)
    2f3f:	c6 45 3c 00          	movb   $0x0,0x3c(%rbp)
    2f43:	89 df                	mov    %ebx,%edi
    2f45:	e8 b6 e3 ff ff       	callq  1300 <close@plt>
    2f4a:	b8 ff ff ff ff       	mov    $0xffffffff,%eax
    2f4f:	e9 de fc ff ff       	jmpq   2c32 <submitr+0x2f8>
    2f54:	48 8d b4 24 50 20 00 	lea    0x2050(%rsp),%rsi
    2f5b:	00 
    2f5c:	48 8d 7c 24 40       	lea    0x40(%rsp),%rdi
    2f61:	ba 00 20 00 00       	mov    $0x2000,%edx
    2f66:	e8 1e f8 ff ff       	callq  2789 <rio_readlineb>
    2f6b:	48 85 c0             	test   %rax,%rax
    2f6e:	0f 8e 96 00 00 00    	jle    300a <submitr+0x6d0>
    2f74:	44 8b 44 24 2c       	mov    0x2c(%rsp),%r8d
    2f79:	41 81 f8 c8 00 00 00 	cmp    $0xc8,%r8d
    2f80:	0f 85 08 01 00 00    	jne    308e <submitr+0x754>
    2f86:	48 8d b4 24 50 20 00 	lea    0x2050(%rsp),%rsi
    2f8d:	00 
    2f8e:	48 89 ef             	mov    %rbp,%rdi
    2f91:	e8 fa e2 ff ff       	callq  1290 <strcpy@plt>
    2f96:	89 df                	mov    %ebx,%edi
    2f98:	e8 63 e3 ff ff       	callq  1300 <close@plt>
    2f9d:	b9 04 00 00 00       	mov    $0x4,%ecx
    2fa2:	48 8d 3d e4 16 00 00 	lea    0x16e4(%rip),%rdi        # 468d <trans_char+0xbd>
    2fa9:	48 89 ee             	mov    %rbp,%rsi
    2fac:	f3 a6                	repz cmpsb %es:(%rdi),%ds:(%rsi)
    2fae:	0f 97 c0             	seta   %al
    2fb1:	1c 00                	sbb    $0x0,%al
    2fb3:	0f be c0             	movsbl %al,%eax
    2fb6:	85 c0                	test   %eax,%eax
    2fb8:	0f 84 74 fc ff ff    	je     2c32 <submitr+0x2f8>
    2fbe:	b9 05 00 00 00       	mov    $0x5,%ecx
    2fc3:	48 8d 3d c7 16 00 00 	lea    0x16c7(%rip),%rdi        # 4691 <trans_char+0xc1>
    2fca:	48 89 ee             	mov    %rbp,%rsi
    2fcd:	f3 a6                	repz cmpsb %es:(%rdi),%ds:(%rsi)
    2fcf:	0f 97 c0             	seta   %al
    2fd2:	1c 00                	sbb    $0x0,%al
    2fd4:	0f be c0             	movsbl %al,%eax
    2fd7:	85 c0                	test   %eax,%eax
    2fd9:	0f 84 53 fc ff ff    	je     2c32 <submitr+0x2f8>
    2fdf:	b9 03 00 00 00       	mov    $0x3,%ecx
    2fe4:	48 8d 3d ab 16 00 00 	lea    0x16ab(%rip),%rdi        # 4696 <trans_char+0xc6>
    2feb:	48 89 ee             	mov    %rbp,%rsi
    2fee:	f3 a6                	repz cmpsb %es:(%rdi),%ds:(%rsi)
    2ff0:	0f 97 c0             	seta   %al
    2ff3:	1c 00                	sbb    $0x0,%al
    2ff5:	0f be c0             	movsbl %al,%eax
    2ff8:	85 c0                	test   %eax,%eax
    2ffa:	0f 84 32 fc ff ff    	je     2c32 <submitr+0x2f8>
    3000:	b8 ff ff ff ff       	mov    $0xffffffff,%eax
    3005:	e9 28 fc ff ff       	jmpq   2c32 <submitr+0x2f8>
    300a:	48 b8 45 72 72 6f 72 	movabs $0x43203a726f727245,%rax
    3011:	3a 20 43 
    3014:	48 ba 6c 69 65 6e 74 	movabs $0x6e7520746e65696c,%rdx
    301b:	20 75 6e 
    301e:	48 89 45 00          	mov    %rax,0x0(%rbp)
    3022:	48 89 55 08          	mov    %rdx,0x8(%rbp)
    3026:	48 b8 61 62 6c 65 20 	movabs $0x206f7420656c6261,%rax
    302d:	74 6f 20 
    3030:	48 ba 72 65 61 64 20 	movabs $0x6174732064616572,%rdx
    3037:	73 74 61 
    303a:	48 89 45 10          	mov    %rax,0x10(%rbp)
    303e:	48 89 55 18          	mov    %rdx,0x18(%rbp)
    3042:	48 b8 74 75 73 20 6d 	movabs $0x7373656d20737574,%rax
    3049:	65 73 73 
    304c:	48 ba 61 67 65 20 66 	movabs $0x6d6f726620656761,%rdx
    3053:	72 6f 6d 
    3056:	48 89 45 20          	mov    %rax,0x20(%rbp)
    305a:	48 89 55 28          	mov    %rdx,0x28(%rbp)
    305e:	48 b8 20 72 65 73 75 	movabs $0x20746c7573657220,%rax
    3065:	6c 74 20 
    3068:	48 89 45 30          	mov    %rax,0x30(%rbp)
    306c:	c7 45 38 73 65 72 76 	movl   $0x76726573,0x38(%rbp)
    3073:	66 c7 45 3c 65 72    	movw   $0x7265,0x3c(%rbp)
    3079:	c6 45 3e 00          	movb   $0x0,0x3e(%rbp)
    307d:	89 df                	mov    %ebx,%edi
    307f:	e8 7c e2 ff ff       	callq  1300 <close@plt>
    3084:	b8 ff ff ff ff       	mov    $0xffffffff,%eax
    3089:	e9 a4 fb ff ff       	jmpq   2c32 <submitr+0x2f8>
    308e:	4c 8d 8c 24 50 80 00 	lea    0x8050(%rsp),%r9
    3095:	00 
    3096:	48 8d 0d ab 15 00 00 	lea    0x15ab(%rip),%rcx        # 4648 <trans_char+0x78>
    309d:	48 c7 c2 ff ff ff ff 	mov    $0xffffffffffffffff,%rdx
    30a4:	be 01 00 00 00       	mov    $0x1,%esi
    30a9:	48 89 ef             	mov    %rbp,%rdi
    30ac:	b8 00 00 00 00       	mov    $0x0,%eax
    30b1:	e8 8a e3 ff ff       	callq  1440 <__sprintf_chk@plt>
    30b6:	89 df                	mov    %ebx,%edi
    30b8:	e8 43 e2 ff ff       	callq  1300 <close@plt>
    30bd:	b8 ff ff ff ff       	mov    $0xffffffff,%eax
    30c2:	e9 6b fb ff ff       	jmpq   2c32 <submitr+0x2f8>
    30c7:	e8 f4 e1 ff ff       	callq  12c0 <__stack_chk_fail@plt>

00000000000030cc <init_timeout>:
    30cc:	f3 0f 1e fa          	endbr64 
    30d0:	85 ff                	test   %edi,%edi
    30d2:	74 26                	je     30fa <init_timeout+0x2e>
    30d4:	53                   	push   %rbx
    30d5:	89 fb                	mov    %edi,%ebx
    30d7:	78 1a                	js     30f3 <init_timeout+0x27>
    30d9:	48 8d 35 8e f5 ff ff 	lea    -0xa72(%rip),%rsi        # 266e <sigalrm_handler>
    30e0:	bf 0e 00 00 00       	mov    $0xe,%edi
    30e5:	e8 36 e2 ff ff       	callq  1320 <signal@plt>
    30ea:	89 df                	mov    %ebx,%edi
    30ec:	e8 ff e1 ff ff       	callq  12f0 <alarm@plt>
    30f1:	5b                   	pop    %rbx
    30f2:	c3                   	retq   
    30f3:	bb 00 00 00 00       	mov    $0x0,%ebx
    30f8:	eb df                	jmp    30d9 <init_timeout+0xd>
    30fa:	c3                   	retq   

00000000000030fb <init_driver>:
    30fb:	f3 0f 1e fa          	endbr64 
    30ff:	41 54                	push   %r12
    3101:	55                   	push   %rbp
    3102:	53                   	push   %rbx
    3103:	48 83 ec 20          	sub    $0x20,%rsp
    3107:	48 89 fd             	mov    %rdi,%rbp
    310a:	64 48 8b 04 25 28 00 	mov    %fs:0x28,%rax
    3111:	00 00 
    3113:	48 89 44 24 18       	mov    %rax,0x18(%rsp)
    3118:	31 c0                	xor    %eax,%eax
    311a:	be 01 00 00 00       	mov    $0x1,%esi
    311f:	bf 0d 00 00 00       	mov    $0xd,%edi
    3124:	e8 f7 e1 ff ff       	callq  1320 <signal@plt>
    3129:	be 01 00 00 00       	mov    $0x1,%esi
    312e:	bf 1d 00 00 00       	mov    $0x1d,%edi
    3133:	e8 e8 e1 ff ff       	callq  1320 <signal@plt>
    3138:	be 01 00 00 00       	mov    $0x1,%esi
    313d:	bf 1d 00 00 00       	mov    $0x1d,%edi
    3142:	e8 d9 e1 ff ff       	callq  1320 <signal@plt>
    3147:	ba 00 00 00 00       	mov    $0x0,%edx
    314c:	be 01 00 00 00       	mov    $0x1,%esi
    3151:	bf 02 00 00 00       	mov    $0x2,%edi
    3156:	e8 f5 e2 ff ff       	callq  1450 <socket@plt>
    315b:	85 c0                	test   %eax,%eax
    315d:	0f 88 9c 00 00 00    	js     31ff <init_driver+0x104>
    3163:	89 c3                	mov    %eax,%ebx
    3165:	48 8d 3d 2d 15 00 00 	lea    0x152d(%rip),%rdi        # 4699 <trans_char+0xc9>
    316c:	e8 bf e1 ff ff       	callq  1330 <gethostbyname@plt>
    3171:	48 85 c0             	test   %rax,%rax
    3174:	0f 84 d1 00 00 00    	je     324b <init_driver+0x150>
    317a:	49 89 e4             	mov    %rsp,%r12
    317d:	48 c7 04 24 00 00 00 	movq   $0x0,(%rsp)
    3184:	00 
    3185:	48 c7 44 24 08 00 00 	movq   $0x0,0x8(%rsp)
    318c:	00 00 
    318e:	66 c7 04 24 02 00    	movw   $0x2,(%rsp)
    3194:	48 63 50 14          	movslq 0x14(%rax),%rdx
    3198:	48 8b 40 18          	mov    0x18(%rax),%rax
    319c:	48 8b 30             	mov    (%rax),%rsi
    319f:	48 8d 7c 24 04       	lea    0x4(%rsp),%rdi
    31a4:	b9 0c 00 00 00       	mov    $0xc,%ecx
    31a9:	e8 92 e1 ff ff       	callq  1340 <__memmove_chk@plt>
    31ae:	66 c7 44 24 02 3c 9a 	movw   $0x9a3c,0x2(%rsp)
    31b5:	ba 10 00 00 00       	mov    $0x10,%edx
    31ba:	4c 89 e6             	mov    %r12,%rsi
    31bd:	89 df                	mov    %ebx,%edi
    31bf:	e8 4c e2 ff ff       	callq  1410 <connect@plt>
    31c4:	85 c0                	test   %eax,%eax
    31c6:	0f 88 e7 00 00 00    	js     32b3 <init_driver+0x1b8>
    31cc:	89 df                	mov    %ebx,%edi
    31ce:	e8 2d e1 ff ff       	callq  1300 <close@plt>
    31d3:	66 c7 45 00 4f 4b    	movw   $0x4b4f,0x0(%rbp)
    31d9:	c6 45 02 00          	movb   $0x0,0x2(%rbp)
    31dd:	b8 00 00 00 00       	mov    $0x0,%eax
    31e2:	48 8b 4c 24 18       	mov    0x18(%rsp),%rcx
    31e7:	64 48 33 0c 25 28 00 	xor    %fs:0x28,%rcx
    31ee:	00 00 
    31f0:	0f 85 10 01 00 00    	jne    3306 <init_driver+0x20b>
    31f6:	48 83 c4 20          	add    $0x20,%rsp
    31fa:	5b                   	pop    %rbx
    31fb:	5d                   	pop    %rbp
    31fc:	41 5c                	pop    %r12
    31fe:	c3                   	retq   
    31ff:	48 b8 45 72 72 6f 72 	movabs $0x43203a726f727245,%rax
    3206:	3a 20 43 
    3209:	48 ba 6c 69 65 6e 74 	movabs $0x6e7520746e65696c,%rdx
    3210:	20 75 6e 
    3213:	48 89 45 00          	mov    %rax,0x0(%rbp)
    3217:	48 89 55 08          	mov    %rdx,0x8(%rbp)
    321b:	48 b8 61 62 6c 65 20 	movabs $0x206f7420656c6261,%rax
    3222:	74 6f 20 
    3225:	48 ba 63 72 65 61 74 	movabs $0x7320657461657263,%rdx
    322c:	65 20 73 
    322f:	48 89 45 10          	mov    %rax,0x10(%rbp)
    3233:	48 89 55 18          	mov    %rdx,0x18(%rbp)
    3237:	c7 45 20 6f 63 6b 65 	movl   $0x656b636f,0x20(%rbp)
    323e:	66 c7 45 24 74 00    	movw   $0x74,0x24(%rbp)
    3244:	b8 ff ff ff ff       	mov    $0xffffffff,%eax
    3249:	eb 97                	jmp    31e2 <init_driver+0xe7>
    324b:	48 b8 45 72 72 6f 72 	movabs $0x44203a726f727245,%rax
    3252:	3a 20 44 
    3255:	48 ba 4e 53 20 69 73 	movabs $0x6e7520736920534e,%rdx
    325c:	20 75 6e 
    325f:	48 89 45 00          	mov    %rax,0x0(%rbp)
    3263:	48 89 55 08          	mov    %rdx,0x8(%rbp)
    3267:	48 b8 61 62 6c 65 20 	movabs $0x206f7420656c6261,%rax
    326e:	74 6f 20 
    3271:	48 ba 72 65 73 6f 6c 	movabs $0x2065766c6f736572,%rdx
    3278:	76 65 20 
    327b:	48 89 45 10          	mov    %rax,0x10(%rbp)
    327f:	48 89 55 18          	mov    %rdx,0x18(%rbp)
    3283:	48 b8 73 65 72 76 65 	movabs $0x6120726576726573,%rax
    328a:	72 20 61 
    328d:	48 89 45 20          	mov    %rax,0x20(%rbp)
    3291:	c7 45 28 64 64 72 65 	movl   $0x65726464,0x28(%rbp)
    3298:	66 c7 45 2c 73 73    	movw   $0x7373,0x2c(%rbp)
    329e:	c6 45 2e 00          	movb   $0x0,0x2e(%rbp)
    32a2:	89 df                	mov    %ebx,%edi
    32a4:	e8 57 e0 ff ff       	callq  1300 <close@plt>
    32a9:	b8 ff ff ff ff       	mov    $0xffffffff,%eax
    32ae:	e9 2f ff ff ff       	jmpq   31e2 <init_driver+0xe7>
    32b3:	48 b8 45 72 72 6f 72 	movabs $0x55203a726f727245,%rax
    32ba:	3a 20 55 
    32bd:	48 ba 6e 61 62 6c 65 	movabs $0x6f7420656c62616e,%rdx
    32c4:	20 74 6f 
    32c7:	48 89 45 00          	mov    %rax,0x0(%rbp)
    32cb:	48 89 55 08          	mov    %rdx,0x8(%rbp)
    32cf:	48 b8 20 63 6f 6e 6e 	movabs $0x7463656e6e6f6320,%rax
    32d6:	65 63 74 
    32d9:	48 ba 20 74 6f 20 73 	movabs $0x76726573206f7420,%rdx
    32e0:	65 72 76 
    32e3:	48 89 45 10          	mov    %rax,0x10(%rbp)
    32e7:	48 89 55 18          	mov    %rdx,0x18(%rbp)
    32eb:	66 c7 45 20 65 72    	movw   $0x7265,0x20(%rbp)
    32f1:	c6 45 22 00          	movb   $0x0,0x22(%rbp)
    32f5:	89 df                	mov    %ebx,%edi
    32f7:	e8 04 e0 ff ff       	callq  1300 <close@plt>
    32fc:	b8 ff ff ff ff       	mov    $0xffffffff,%eax
    3301:	e9 dc fe ff ff       	jmpq   31e2 <init_driver+0xe7>
    3306:	e8 b5 df ff ff       	callq  12c0 <__stack_chk_fail@plt>

000000000000330b <driver_post>:
    330b:	f3 0f 1e fa          	endbr64 
    330f:	53                   	push   %rbx
    3310:	4c 89 cb             	mov    %r9,%rbx
    3313:	45 85 c0             	test   %r8d,%r8d
    3316:	75 18                	jne    3330 <driver_post+0x25>
    3318:	48 85 ff             	test   %rdi,%rdi
    331b:	74 05                	je     3322 <driver_post+0x17>
    331d:	80 3f 00             	cmpb   $0x0,(%rdi)
    3320:	75 37                	jne    3359 <driver_post+0x4e>
    3322:	66 c7 03 4f 4b       	movw   $0x4b4f,(%rbx)
    3327:	c6 43 02 00          	movb   $0x0,0x2(%rbx)
    332b:	44 89 c0             	mov    %r8d,%eax
    332e:	5b                   	pop    %rbx
    332f:	c3                   	retq   
    3330:	48 89 ca             	mov    %rcx,%rdx
    3333:	48 8d 35 77 13 00 00 	lea    0x1377(%rip),%rsi        # 46b1 <trans_char+0xe1>
    333a:	bf 01 00 00 00       	mov    $0x1,%edi
    333f:	b8 00 00 00 00       	mov    $0x0,%eax
    3344:	e8 67 e0 ff ff       	callq  13b0 <__printf_chk@plt>
    3349:	66 c7 03 4f 4b       	movw   $0x4b4f,(%rbx)
    334e:	c6 43 02 00          	movb   $0x0,0x2(%rbx)
    3352:	b8 00 00 00 00       	mov    $0x0,%eax
    3357:	eb d5                	jmp    332e <driver_post+0x23>
    3359:	48 83 ec 08          	sub    $0x8,%rsp
    335d:	41 51                	push   %r9
    335f:	49 89 c9             	mov    %rcx,%r9
    3362:	49 89 d0             	mov    %rdx,%r8
    3365:	48 89 f9             	mov    %rdi,%rcx
    3368:	48 89 f2             	mov    %rsi,%rdx
    336b:	be 9a 3c 00 00       	mov    $0x3c9a,%esi
    3370:	48 8d 3d 22 13 00 00 	lea    0x1322(%rip),%rdi        # 4699 <trans_char+0xc9>
    3377:	e8 be f5 ff ff       	callq  293a <submitr>
    337c:	48 83 c4 10          	add    $0x10,%rsp
    3380:	eb ac                	jmp    332e <driver_post+0x23>

0000000000003382 <check>:
    3382:	f3 0f 1e fa          	endbr64 
    3386:	89 f8                	mov    %edi,%eax
    3388:	c1 e8 1c             	shr    $0x1c,%eax
    338b:	74 1d                	je     33aa <check+0x28>
    338d:	b9 00 00 00 00       	mov    $0x0,%ecx
    3392:	83 f9 1f             	cmp    $0x1f,%ecx
    3395:	7f 0d                	jg     33a4 <check+0x22>
    3397:	89 f8                	mov    %edi,%eax
    3399:	d3 e8                	shr    %cl,%eax
    339b:	3c 0a                	cmp    $0xa,%al
    339d:	74 11                	je     33b0 <check+0x2e>
    339f:	83 c1 08             	add    $0x8,%ecx
    33a2:	eb ee                	jmp    3392 <check+0x10>
    33a4:	b8 01 00 00 00       	mov    $0x1,%eax
    33a9:	c3                   	retq   
    33aa:	b8 00 00 00 00       	mov    $0x0,%eax
    33af:	c3                   	retq   
    33b0:	b8 00 00 00 00       	mov    $0x0,%eax
    33b5:	c3                   	retq   

00000000000033b6 <gencookie>:
    33b6:	f3 0f 1e fa          	endbr64 
    33ba:	53                   	push   %rbx
    33bb:	83 c7 01             	add    $0x1,%edi
    33be:	e8 ad de ff ff       	callq  1270 <srandom@plt>
    33c3:	e8 b8 df ff ff       	callq  1380 <random@plt>
    33c8:	48 89 c7             	mov    %rax,%rdi
    33cb:	89 c3                	mov    %eax,%ebx
    33cd:	e8 b0 ff ff ff       	callq  3382 <check>
    33d2:	85 c0                	test   %eax,%eax
    33d4:	74 ed                	je     33c3 <gencookie+0xd>
    33d6:	89 d8                	mov    %ebx,%eax
    33d8:	5b                   	pop    %rbx
    33d9:	c3                   	retq   
    33da:	66 0f 1f 44 00 00    	nopw   0x0(%rax,%rax,1)

00000000000033e0 <__libc_csu_init>:
    33e0:	f3 0f 1e fa          	endbr64 
    33e4:	41 57                	push   %r15
    33e6:	4c 8d 3d cb 38 00 00 	lea    0x38cb(%rip),%r15        # 6cb8 <__frame_dummy_init_array_entry>
    33ed:	41 56                	push   %r14
    33ef:	49 89 d6             	mov    %rdx,%r14
    33f2:	41 55                	push   %r13
    33f4:	49 89 f5             	mov    %rsi,%r13
    33f7:	41 54                	push   %r12
    33f9:	41 89 fc             	mov    %edi,%r12d
    33fc:	55                   	push   %rbp
    33fd:	48 8d 2d bc 38 00 00 	lea    0x38bc(%rip),%rbp        # 6cc0 <__do_global_dtors_aux_fini_array_entry>
    3404:	53                   	push   %rbx
    3405:	4c 29 fd             	sub    %r15,%rbp
    3408:	48 83 ec 08          	sub    $0x8,%rsp
    340c:	e8 ef db ff ff       	callq  1000 <_init>
    3411:	48 c1 fd 03          	sar    $0x3,%rbp
    3415:	74 1f                	je     3436 <__libc_csu_init+0x56>
    3417:	31 db                	xor    %ebx,%ebx
    3419:	0f 1f 80 00 00 00 00 	nopl   0x0(%rax)
    3420:	4c 89 f2             	mov    %r14,%rdx
    3423:	4c 89 ee             	mov    %r13,%rsi
    3426:	44 89 e7             	mov    %r12d,%edi
    3429:	41 ff 14 df          	callq  *(%r15,%rbx,8)
    342d:	48 83 c3 01          	add    $0x1,%rbx
    3431:	48 39 dd             	cmp    %rbx,%rbp
    3434:	75 ea                	jne    3420 <__libc_csu_init+0x40>
    3436:	48 83 c4 08          	add    $0x8,%rsp
    343a:	5b                   	pop    %rbx
    343b:	5d                   	pop    %rbp
    343c:	41 5c                	pop    %r12
    343e:	41 5d                	pop    %r13
    3440:	41 5e                	pop    %r14
    3442:	41 5f                	pop    %r15
    3444:	c3                   	retq   
    3445:	66 66 2e 0f 1f 84 00 	data16 nopw %cs:0x0(%rax,%rax,1)
    344c:	00 00 00 00 

0000000000003450 <__libc_csu_fini>:
    3450:	f3 0f 1e fa          	endbr64 
    3454:	c3                   	retq   

Disassembly of section .fini:

0000000000003458 <_fini>:
    3458:	f3 0f 1e fa          	endbr64 
    345c:	48 83 ec 08          	sub    $0x8,%rsp
    3460:	48 83 c4 08          	add    $0x8,%rsp
    3464:	c3                   	retq   
